LIBRARY     CORE.DLL

EXPORTS
    ??0AnimAppData@@QAE@XZ         @1   ; ??0AnimAppData@@QAE@XZ
    ??0AppendRefRestore@@QAE@PAVLoftRefMgr@@PAVReferenceTarget@@@Z @2   ; ??0AppendRefRestore@@QAE@PAVLoftRefMgr@@PAVReferenceTarget@@@Z
    ??0BezFont@@QAE@XZ             @3   ; ??0BezFont@@QAE@XZ
    ??0BezFontManager@@QAE@XZ      @4   ; ??0BezFontManager@@QAE@XZ
    ??0BezFontMetrics@@QAE@PAUtagNEWTEXTMETRICA@@@Z @5   ; ??0BezFontMetrics@@QAE@PAUtagNEWTEXTMETRICA@@@Z
    ??0BezFontMetrics@@QAE@XZ      @6   ; ??0BezFontMetrics@@QAE@XZ
    ??0BezierShape@@QAE@AAV0@@Z    @7   ; ??0BezierShape@@QAE@AAV0@@Z
    ??0BezierShape@@QAE@XZ         @8   ; ??0BezierShape@@QAE@XZ
    ??0ClassEntry@@QAE@ABV0@@Z     @9   ; ??0ClassEntry@@QAE@ABV0@@Z
    ??0ClassEntry@@QAE@PAVClassDesc@@HH@Z @10  ; ??0ClassEntry@@QAE@PAVClassDesc@@HH@Z
    ??0ClassEntry@@QAE@XZ          @11  ; ??0ClassEntry@@QAE@XZ
    ??0CrossSection@@QAE@PAVLoftObject@@HPAVObject@@M@Z @12  ; ??0CrossSection@@QAE@PAVLoftObject@@HPAVObject@@M@Z
    ??0DecRefRestore@@QAE@PAVLoftRefMgr@@H@Z @13  ; ??0DecRefRestore@@QAE@PAVLoftRefMgr@@H@Z
    ??0DeletedRestore@@QAE@PAVReferenceMaker@@@Z @14  ; ??0DeletedRestore@@QAE@PAVReferenceMaker@@@Z
    ??0DeletedRestore@@QAE@XZ      @15  ; ??0DeletedRestore@@QAE@XZ
    ??0DllDesc@@QAE@XZ             @16  ; ??0DllDesc@@QAE@XZ
    ??0DummyObject@@QAE@XZ         @17  ; ??0DummyObject@@QAE@XZ
    ??0GenDerivedObject@@QAE@PAVObject@@@Z @18  ; ??0GenDerivedObject@@QAE@PAVObject@@@Z
    ??0GenDerivedObject@@QAE@XZ    @19  ; ??0GenDerivedObject@@QAE@XZ
    ??0Hold@@QAE@XZ                @20  ; ??0Hold@@QAE@XZ
    ??0IncRefRestore@@QAE@PAVLoftRefMgr@@H@Z @21  ; ??0IncRefRestore@@QAE@PAVLoftRefMgr@@H@Z
    ??0InsertCrossSectionEntryRestore@@QAE@HMHPAVObject@@PAVMatrix3@@H@Z @22  ; ??0InsertCrossSectionEntryRestore@@QAE@HMHPAVObject@@PAVMatrix3@@H@Z
    ??0Interval@@QAE@HH@Z          @23  ; ??0Interval@@QAE@HH@Z
    ??0JointParams@@QAE@ABV0@@Z    @24  ; ??0JointParams@@QAE@ABV0@@Z
    ??0JointParams@@QAE@KHM@Z      @25  ; ??0JointParams@@QAE@KHM@Z
    ??0LinearShape@@QAE@XZ         @26  ; ??0LinearShape@@QAE@XZ
    ??0LoftObject@@QAE@XZ          @27  ; ??0LoftObject@@QAE@XZ
    ??0LoftReplaceSectionRestore@@QAE@HHPAVObject@@H0@Z @28  ; ??0LoftReplaceSectionRestore@@QAE@HHPAVObject@@H0@Z
    ??0LoftRestore@@QAE@PAVLoftObject@@PAVModRecord@@@Z @29  ; ??0LoftRestore@@QAE@PAVLoftObject@@PAVModRecord@@@Z
    ??0LoftShape@@QAE@PAVLoftObject@@PAVCrossSection@@HPAVObject@@PAVMatrix3@@@Z @30  ; ??0LoftShape@@QAE@PAVLoftObject@@PAVCrossSection@@HPAVObject@@PAVMatrix3@@@Z
    ??0LoftShapeDupFinish@@QAE@AAVBitArray@@@Z @31  ; ??0LoftShapeDupFinish@@QAE@AAVBitArray@@@Z
    ??0LoftShapeDupStart@@QAE@AAVBitArray@@@Z @32  ; ??0LoftShapeDupStart@@QAE@AAVBitArray@@@Z
    ??0MeshCapper@@QAE@AAVPolyShape@@@Z @33  ; ??0MeshCapper@@QAE@AAVPolyShape@@@Z
    ??0ModApp@@QAE@PAVModifier@@PAVModContext@@@Z @34  ; ??0ModApp@@QAE@PAVModifier@@PAVModContext@@@Z
    ??0ModApp@@QAE@XZ              @35  ; ??0ModApp@@QAE@XZ
    ??0ModContext@@QAE@ABV0@@Z     @36  ; ??0ModContext@@QAE@ABV0@@Z
    ??0ModContext@@QAE@PAVMatrix3@@PAVBox3@@PAVLocalModData@@@Z @37  ; ??0ModContext@@QAE@PAVMatrix3@@PAVBox3@@PAVLocalModData@@@Z
    ??0ModContext@@QAE@XZ          @38  ; ??0ModContext@@QAE@XZ
    ??0MouseManager@@QAE@XZ        @39  ; ??0MouseManager@@QAE@XZ
    ??0MtlBase@@QAE@XZ             @40  ; ??0MtlBase@@QAE@XZ
    ??0NurbsObject@@QAE@XZ         @41  ; ??0NurbsObject@@QAE@XZ
    ??0ObRefModApp@@QAE@XZ         @42  ; ??0ObRefModApp@@QAE@XZ
    ??0ObjLightDesc@@QAE@PAVINode@@@Z @43  ; ??0ObjLightDesc@@QAE@PAVINode@@@Z
    ??0ObjectState@@QAE@ABV0@@Z    @44  ; ??0ObjectState@@QAE@ABV0@@Z
    ??0ObjectState@@QAE@PAVObject@@@Z @45  ; ??0ObjectState@@QAE@PAVObject@@@Z
    ??0ObjectState@@QAE@XZ         @46  ; ??0ObjectState@@QAE@XZ
    ??0OrderSectionsRestore@@QAE@XZ @47  ; ??0OrderSectionsRestore@@QAE@XZ
    ??0ParamUIDesc@@QAE@HW4ControlType@@H@Z @48  ; ??0ParamUIDesc@@QAE@HW4ControlType@@H@Z
    ??0ParamUIDesc@@QAE@HW4ControlType@@PAHH1@Z @49  ; ??0ParamUIDesc@@QAE@HW4ControlType@@PAHH1@Z
    ??0ParamUIDesc@@QAE@HW4EditSpinnerType@@HHHHHHMMMPAVParamDimension@@@Z @50  ; ??0ParamUIDesc@@QAE@HW4EditSpinnerType@@HHHHHHMMMPAVParamDimension@@@Z
    ??0ParamUIDesc@@QAE@HW4EditSpinnerType@@HHMMMPAVParamDimension@@@Z @51  ; ??0ParamUIDesc@@QAE@HW4EditSpinnerType@@HHMMMPAVParamDimension@@@Z
    ??0PatchCapper@@QAE@AAVBezierShape@@@Z @52  ; ??0PatchCapper@@QAE@AAVBezierShape@@@Z
    ??0PatchObject@@QAE@XZ         @53  ; ??0PatchObject@@QAE@XZ
    ??0PathGetRecord@@QAE@H@Z      @54  ; ??0PathGetRecord@@QAE@H@Z
    ??0PolyLine@@QAE@AAV0@@Z       @55  ; ??0PolyLine@@QAE@AAV0@@Z
    ??0PolyLine@@QAE@XZ            @56  ; ??0PolyLine@@QAE@XZ
    ??0PolyShape@@QAE@AAV0@@Z      @57  ; ??0PolyShape@@QAE@AAV0@@Z
    ??0PolyShape@@QAE@XZ           @58  ; ??0PolyShape@@QAE@XZ
    ??0RefList@@QAE@XZ             @59  ; ??0RefList@@QAE@XZ
    ??0RefListItem@@QAE@PAVReferenceMaker@@PAV0@@Z @60  ; ??0RefListItem@@QAE@PAVReferenceMaker@@PAV0@@Z
    ??0RefMgrSetRef@@QAE@PAVLoftRefMgr@@HPAVReferenceTarget@@1@Z @61  ; ??0RefMgrSetRef@@QAE@PAVLoftRefMgr@@HPAVReferenceTarget@@1@Z
    ??0SecRemoveRecord@@QAE@HAAVCrossSection@@H@Z @62  ; ??0SecRemoveRecord@@QAE@HAAVCrossSection@@H@Z
    ??0ShapePSel@@QAE@XZ           @63  ; ??0ShapePSel@@QAE@XZ
    ??0ShapeSSel@@QAE@XZ           @64  ; ??0ShapeSSel@@QAE@XZ
    ??0ShapeVSel@@QAE@XZ           @65  ; ??0ShapeVSel@@QAE@XZ
    ??0SimpleMod@@QAE@XZ           @66  ; ??0SimpleMod@@QAE@XZ
    ??0SimpleObject@@QAE@XZ        @67  ; ??0SimpleObject@@QAE@XZ
    ??0SimpleParticle@@QAE@XZ      @68  ; ??0SimpleParticle@@QAE@XZ
    ??0SimpleShape@@QAE@XZ         @69  ; ??0SimpleShape@@QAE@XZ
    ??0SimpleSpline@@QAE@XZ        @70  ; ??0SimpleSpline@@QAE@XZ
    ??0SimpleWSMMod@@QAE@XZ        @71  ; ??0SimpleWSMMod@@QAE@XZ
    ??0SimpleWSMObject@@QAE@XZ     @72  ; ??0SimpleWSMObject@@QAE@XZ
    ??0SpinnerControl@@QAE@PAUHWND__@@MM@Z @73  ; ??0SpinnerControl@@QAE@PAUHWND__@@MM@Z
    ??0Spline3D@@QAE@HHH@Z         @74  ; ??0Spline3D@@QAE@HHH@Z
    ??0SplineShape@@QAE@XZ         @75  ; ??0SplineShape@@QAE@XZ
    ??0TransformCtrlApparatus@@QAE@PAVControl@@PAVIObjParam@@@Z @76  ; ??0TransformCtrlApparatus@@QAE@PAVControl@@PAVIObjParam@@@Z
    ??0TransformModBox@@QAE@PAVBaseObject@@PAVIObjParam@@@Z @77  ; ??0TransformModBox@@QAE@PAVBaseObject@@PAVIObjParam@@@Z
    ??0TriObject@@QAE@XZ           @78  ; ??0TriObject@@QAE@XZ
    ??1AnimAppData@@UAE@XZ         @79  ; ??1AnimAppData@@UAE@XZ
    ??1Animatable@@UAE@XZ          @80  ; ??1Animatable@@UAE@XZ
    ??1BezFontManager@@QAE@XZ      @81  ; ??1BezFontManager@@QAE@XZ
    ??1BezierShape@@QAE@XZ         @82  ; ??1BezierShape@@QAE@XZ
    ??1ClassDirectory@@QAE@XZ      @83  ; ??1ClassDirectory@@QAE@XZ
    ??1DeletedRestore@@UAE@XZ      @84  ; ??1DeletedRestore@@UAE@XZ
    ??1DllDir@@QAE@XZ              @85  ; ??1DllDir@@QAE@XZ
    ??1EaseCurveList@@UAE@XZ       @86  ; ??1EaseCurveList@@UAE@XZ
    ??1GenDerivedObject@@UAE@XZ    @87  ; ??1GenDerivedObject@@UAE@XZ
    ??1Hold@@QAE@XZ                @88  ; ??1Hold@@QAE@XZ
    ??1JointParams@@UAE@XZ         @89  ; ??1JointParams@@UAE@XZ
    ??1LinearShape@@UAE@XZ         @90  ; ??1LinearShape@@UAE@XZ
    ??1LoftObject@@UAE@XZ          @91  ; ??1LoftObject@@UAE@XZ
    ??1LoftShape@@QAE@XZ           @92  ; ??1LoftShape@@QAE@XZ
    ??1MeshCapPoly@@QAE@XZ         @93  ; ??1MeshCapPoly@@QAE@XZ
    ??1MeshCapper@@QAE@XZ          @94  ; ??1MeshCapper@@QAE@XZ
    ??1ModApp@@UAE@XZ              @95  ; ??1ModApp@@UAE@XZ
    ??1ModContext@@QAE@XZ          @96  ; ??1ModContext@@QAE@XZ
    ??1MouseManager@@QAE@XZ        @97  ; ??1MouseManager@@QAE@XZ
    ??1MtlBaseLib@@UAE@XZ          @98  ; ??1MtlBaseLib@@UAE@XZ
    ??1MtlLib@@UAE@XZ              @99  ; ??1MtlLib@@UAE@XZ
    ??1MultCurveList@@UAE@XZ       @100 ; ??1MultCurveList@@UAE@XZ
    ??1NurbsObject@@UAE@XZ         @101 ; ??1NurbsObject@@UAE@XZ
    ??1ObRefModApp@@UAE@XZ         @102 ; ??1ObRefModApp@@UAE@XZ
    ??1ObjLightDesc@@UAE@XZ        @103 ; ??1ObjLightDesc@@UAE@XZ
    ??1ObjectState@@QAE@XZ         @104 ; ??1ObjectState@@QAE@XZ
    ??1PatchCapPoly@@QAE@XZ        @105 ; ??1PatchCapPoly@@QAE@XZ
    ??1PatchCapper@@QAE@XZ         @106 ; ??1PatchCapper@@QAE@XZ
    ??1PatchObject@@UAE@XZ         @107 ; ??1PatchObject@@UAE@XZ
    ??1PolyLine@@QAE@XZ            @108 ; ??1PolyLine@@QAE@XZ
    ??1PolyShape@@QAE@XZ           @109 ; ??1PolyShape@@QAE@XZ
    ??1ShapePSel@@QAE@XZ           @110 ; ??1ShapePSel@@QAE@XZ
    ??1ShapeSSel@@QAE@XZ           @111 ; ??1ShapeSSel@@QAE@XZ
    ??1ShapeVSel@@QAE@XZ           @112 ; ??1ShapeVSel@@QAE@XZ
    ??1SimpleMod@@UAE@XZ           @113 ; ??1SimpleMod@@UAE@XZ
    ??1SimpleObject@@UAE@XZ        @114 ; ??1SimpleObject@@UAE@XZ
    ??1SimpleParticle@@UAE@XZ      @115 ; ??1SimpleParticle@@UAE@XZ
    ??1SimpleShape@@UAE@XZ         @116 ; ??1SimpleShape@@UAE@XZ
    ??1SimpleSpline@@UAE@XZ        @117 ; ??1SimpleSpline@@UAE@XZ
    ??1SimpleWSMMod@@UAE@XZ        @118 ; ??1SimpleWSMMod@@UAE@XZ
    ??1SimpleWSMObject@@UAE@XZ     @119 ; ??1SimpleWSMObject@@UAE@XZ
    ??1Spline3D@@QAE@XZ            @120 ; ??1Spline3D@@QAE@XZ
    ??1SplineShape@@UAE@XZ         @121 ; ??1SplineShape@@UAE@XZ
    ??1SubClassList@@QAE@XZ        @122 ; ??1SubClassList@@QAE@XZ
    ??1TransformCtrlApparatus@@UAE@XZ @123 ; ??1TransformCtrlApparatus@@UAE@XZ
    ??1TransformModBox@@UAE@XZ     @124 ; ??1TransformModBox@@UAE@XZ
    ??1TriObject@@UAE@XZ           @125 ; ??1TriObject@@UAE@XZ
    ??4BezFontInfo@@QAEAAV0@AAV0@@Z @126 ; ??4BezFontInfo@@QAEAAV0@AAV0@@Z
    ??4BezierShape@@QAEAAV0@AAV0@@Z @127 ; ??4BezierShape@@QAEAAV0@AAV0@@Z
    ??4BezierShape@@QAEAAV0@AAVPolyShape@@@Z @128 ; ??4BezierShape@@QAEAAV0@AAVPolyShape@@@Z
    ??4ClassEntry@@QAEAAV0@ABV0@@Z @129 ; ??4ClassEntry@@QAEAAV0@ABV0@@Z
    ??4CrossSection@@QAEAAV0@AAV0@@Z @130 ; ??4CrossSection@@QAEAAV0@AAV0@@Z
    ??4JointParams@@QAEAAV0@AAV0@@Z @131 ; ??4JointParams@@QAEAAV0@AAV0@@Z
    ??4LoftShape@@QAEAAV0@AAV0@@Z  @132 ; ??4LoftShape@@QAEAAV0@AAV0@@Z
    ??4MtlBase@@QAEAAV0@ABV0@@Z    @133 ; ??4MtlBase@@QAEAAV0@ABV0@@Z
    ??4NoteKeyTab@@QAEAAV0@AAV0@@Z @134 ; ??4NoteKeyTab@@QAEAAV0@AAV0@@Z
    ??4ObjectState@@QAEAAV0@ABV0@@Z @135 ; ??4ObjectState@@QAEAAV0@ABV0@@Z
    ??4PolyLine@@QAEAAV0@AAV0@@Z   @136 ; ??4PolyLine@@QAEAAV0@AAV0@@Z
    ??4PolyLine@@QAEAAV0@AAVSpline3D@@@Z @137 ; ??4PolyLine@@QAEAAV0@AAVSpline3D@@@Z
    ??4PolyShape@@QAEAAV0@AAV0@@Z  @138 ; ??4PolyShape@@QAEAAV0@AAV0@@Z
    ??4PolyShape@@QAEAAV0@AAVBezierShape@@@Z @139 ; ??4PolyShape@@QAEAAV0@AAVBezierShape@@@Z
    ??4RefList@@QAEAAV0@ABV0@@Z    @140 ; ??4RefList@@QAEAAV0@ABV0@@Z
    ??4RefListItem@@QAEAAV0@ABV0@@Z @141 ; ??4RefListItem@@QAEAAV0@ABV0@@Z
    ??4ShapePSel@@QAEAAV0@AAV0@@Z  @142 ; ??4ShapePSel@@QAEAAV0@AAV0@@Z
    ??4ShapeSSel@@QAEAAV0@AAV0@@Z  @143 ; ??4ShapeSSel@@QAEAAV0@AAV0@@Z
    ??4ShapeVSel@@QAEAAV0@AAV0@@Z  @144 ; ??4ShapeVSel@@QAEAAV0@AAV0@@Z
    ??4Spline3D@@QAEAAV0@AAV0@@Z   @145 ; ??4Spline3D@@QAEAAV0@AAV0@@Z
    ??4Spline3D@@QAEAAV0@AAVPolyLine@@@Z @146 ; ??4Spline3D@@QAEAAV0@AAVPolyLine@@@Z
    ??AMeshCapper@@QAEAAVMeshCapPoly@@H@Z @147 ; ??AMeshCapper@@QAEAAVMeshCapPoly@@H@Z
    ??APatchCapper@@QAEAAVPatchCapPoly@@H@Z @148 ; ??APatchCapper@@QAEAAVPatchCapPoly@@H@Z
    ??APolyLine@@QAEAAVPolyPt@@H@Z @149 ; ??APolyLine@@QAEAAVPolyPt@@H@Z
    ??AShapePSel@@QBEHH@Z          @150 ; ??AShapePSel@@QBEHH@Z
    ??AShapeSSel@@QAEAAVBitArray@@H@Z @151 ; ??AShapeSSel@@QAEAAVBitArray@@H@Z
    ??AShapeVSel@@QAEAAVBitArray@@H@Z @152 ; ??AShapeVSel@@QAEAAVBitArray@@H@Z
    ??D@YA?AVScaleValue@@ABV0@M@Z  @153 ; ??D@YA?AVScaleValue@@ABV0@M@Z
    ??D@YA?AVScaleValue@@MABV0@@Z  @154 ; ??D@YA?AVScaleValue@@MABV0@@Z
    ??G@YA?AVScaleValue@@ABV0@0@Z  @155 ; ??G@YA?AVScaleValue@@ABV0@0@Z
    ??H@YA?AVScaleValue@@ABV0@0@Z  @156 ; ??H@YA?AVScaleValue@@ABV0@0@Z
    ??H@YA?AVScaleValue@@ABV0@M@Z  @157 ; ??H@YA?AVScaleValue@@ABV0@M@Z
    ??H@YA?AVScaleValue@@MABV0@@Z  @158 ; ??H@YA?AVScaleValue@@MABV0@@Z
    ??IInterval@@QBE?AV0@V0@@Z     @159 ; ??IInterval@@QBE?AV0@V0@@Z
    ??YBezierShape@@QAEAAV0@AAV0@@Z @160 ; ??YBezierShape@@QAEAAV0@AAV0@@Z
    ??YBox2D@@QAEAAV0@ABVPoint2@@@Z @161 ; ??YBox2D@@QAEAAV0@ABVPoint2@@@Z
    ??_C@_09IOKP@Parameter?$AA@    @162 ; ??_C@_09IOKP@Parameter?$AA@
    ??_FCrossSection@@QAEXXZ       @163 ; ??_FCrossSection@@QAEXXZ
    ??_FJointParams@@QAEXXZ        @164 ; ??_FJointParams@@QAEXXZ
    ??_FLoftShape@@QAEXXZ          @165 ; ??_FLoftShape@@QAEXXZ
    ??_FSpline3D@@QAEXXZ           @166 ; ??_FSpline3D@@QAEXXZ
    ?AbortClone@GenModSelectionProcessor@@MAEXXZ @167 ; ?AbortClone@GenModSelectionProcessor@@MAEXXZ
    ?AcceleratorsEnabled@@YAHXZ    @168 ; ?AcceleratorsEnabled@@YAHXZ
    ?Accept@Hold@@QAEXH@Z          @169 ; ?Accept@Hold@@QAEXH@Z
    ?Accept@Hold@@QAEXPAD@Z        @170 ; ?Accept@Hold@@QAEXPAD@Z
    ?AcceptClone@GenModSelectionProcessor@@MAEXXZ @171 ; ?AcceptClone@GenModSelectionProcessor@@MAEXXZ
    ?ActivateSubobjSel@LoftObject@@UAEXHAAVXFormModes@@@Z @172 ; ?ActivateSubobjSel@LoftObject@@UAEXHAAVXFormModes@@@Z
    ?ActivateSubobjSel@SimpleMod@@UAEXHAAVXFormModes@@@Z @173 ; ?ActivateSubobjSel@SimpleMod@@UAEXHAAVXFormModes@@@Z
    ?Add@MtlBaseLib@@UAEXPAVMtlBase@@@Z @174 ; ?Add@MtlBaseLib@@UAEXPAVMtlBase@@@Z
    ?Add@MtlLib@@UAEXPAVMtl@@@Z    @175 ; ?Add@MtlLib@@UAEXPAVMtl@@@Z
    ?Add@NumList@@QAEHHH@Z         @176 ; ?Add@NumList@@QAEHHH@Z
    ?AddAppDataChunk@Animatable@@QAEXVClass_ID@@KKKPAX@Z @177 ; ?AddAppDataChunk@Animatable@@QAEXVClass_ID@@KKKPAX@Z
    ?AddClass@ClassDirectory@@QAEHPAVClassDesc@@HH@Z @178 ; ?AddClass@ClassDirectory@@QAEHPAVClassDesc@@HH@Z
    ?AddClass@SubClassList@@QAEXPAVClassDesc@@HH@Z @179 ; ?AddClass@SubClassList@@QAEXPAVClassDesc@@HH@Z
    ?AddItem@RefList@@QAE?AW4RefResult@@PAVReferenceMaker@@@Z @180 ; ?AddItem@RefList@@QAE?AW4RefResult@@PAVReferenceMaker@@@Z
    ?AddKnot@Spline3D@@QAEHAAVSplineKnot@@H@Z @181 ; ?AddKnot@Spline3D@@QAEHAAVSplineKnot@@H@Z
    ?AddLofterCreateMethod@LoftObject@@QAEPAUHWND__@@PAVIObjParam@@H@Z @182 ; ?AddLofterCreateMethod@LoftObject@@QAEPAUHWND__@@PAVIObjParam@@H@Z
    ?AddLofterDeformParams@LoftObject@@QAEPAUHWND__@@PAVIObjParam@@H@Z @183 ; ?AddLofterDeformParams@LoftObject@@QAEPAUHWND__@@PAVIObjParam@@H@Z
    ?AddLofterPathCommands@LoftObject@@QAEPAUHWND__@@PAVIObjParam@@H@Z @184 ; ?AddLofterPathCommands@LoftObject@@QAEPAUHWND__@@PAVIObjParam@@H@Z
    ?AddLofterPathParams@LoftObject@@QAEPAUHWND__@@PAVIObjParam@@H@Z @185 ; ?AddLofterPathParams@LoftObject@@QAEPAUHWND__@@PAVIObjParam@@H@Z
    ?AddLofterShapeCommands@LoftObject@@QAEPAUHWND__@@PAVIObjParam@@H@Z @186 ; ?AddLofterShapeCommands@LoftObject@@QAEPAUHWND__@@PAVIObjParam@@H@Z
    ?AddLofterSkinParams@LoftObject@@QAEPAUHWND__@@PAVIObjParam@@H@Z @187 ; ?AddLofterSkinParams@LoftObject@@QAEPAUHWND__@@PAVIObjParam@@H@Z
    ?AddLofterSurfaceParams@LoftObject@@QAEPAUHWND__@@PAVIObjParam@@H@Z @188 ; ?AddLofterSurfaceParams@LoftObject@@QAEPAUHWND__@@PAVIObjParam@@H@Z
    ?AddMenu@RightClickMenuManager@@QAEHPAVRightClickMenu@@IIPBD@Z @189 ; ?AddMenu@RightClickMenuManager@@QAEHPAVRightClickMenu@@IIPBD@Z
    ?AddModifier@GenDerivedObject@@UAEXPAVModifier@@PAVModContext@@H@Z @190 ; ?AddModifier@GenDerivedObject@@UAEXPAVModifier@@PAVModContext@@H@Z
    ?AddMtl@MtlBaseList@@QAEHPAVMtlBase@@H@Z @191 ; ?AddMtl@MtlBaseList@@QAEHPAVMtlBase@@H@Z
    ?AddMtl@MtlList@@QAEHPAVMtl@@H@Z @192 ; ?AddMtl@MtlList@@QAEHPAVMtl@@H@Z
    ?AddNewKey@DefNoteTrack@@UAEXHK@Z @193 ; ?AddNewKey@DefNoteTrack@@UAEXHK@Z
    ?AddNoteTrack@Animatable@@QAEXPAVNoteTrack@@@Z @194 ; ?AddNoteTrack@Animatable@@QAEXPAVNoteTrack@@@Z
    ?AddSpline@BezierShape@@QAEPAVSpline3D@@PAV2@@Z @195 ; ?AddSpline@BezierShape@@QAEPAVSpline3D@@PAV2@@Z
    ?AddSuperClass@ClassDirectory@@QAEXK@Z @196 ; ?AddSuperClass@ClassDirectory@@QAEXK@Z
    ?AdjustRefs@LoftObject@@QAEXHH@Z @197 ; ?AdjustRefs@LoftObject@@QAEXHH@Z
    ?AlignCrossSection@LoftObject@@QAEHHHH@Z @198 ; ?AlignCrossSection@LoftObject@@QAEHHHH@Z
    ?AlignCrossSection@LoftObject@@QAEXHH@Z @199 ; ?AlignCrossSection@LoftObject@@QAEXHH@Z
    ?AlignSelectedCrossSections@LoftObject@@QAEXHH@Z @200 ; ?AlignSelectedCrossSections@LoftObject@@QAEXHH@Z
    ?Allocate@Spline3D@@QAEXH@Z    @201 ; ?Allocate@Spline3D@@QAEXH@Z
    ?AnimateOff@@YAXXZ             @202 ; ?AnimateOff@@YAXXZ
    ?AnimateOn@@YAXXZ              @203 ; ?AnimateOn@@YAXXZ
    ?Animating@@YAHXZ              @204 ; ?Animating@@YAHXZ
    ?AnyMulti@MtlBase@@QAEHXZ      @205 ; ?AnyMulti@MtlBase@@QAEHXZ
    ?Append@PolyLine@@QAEXAAVPolyPt@@@Z @206 ; ?Append@PolyLine@@QAEXAAVPolyPt@@@Z
    ?Append@PolyShape@@QAEXAAVPolyLine@@@Z @207 ; ?Append@PolyShape@@QAEXAAVPolyLine@@@Z
    ?Append@Spline3D@@QAEXPAV1@@Z  @208 ; ?Append@Spline3D@@QAEXPAV1@@Z
    ?AppendEaseCurve@Control@@QAEXPAV1@@Z @209 ; ?AppendEaseCurve@Control@@QAEXPAV1@@Z
    ?AppendEaseCurve@EaseCurveList@@QAEXPAVControl@@@Z @210 ; ?AppendEaseCurve@EaseCurveList@@QAEXPAVControl@@@Z
    ?AppendMultCurve@Control@@QAEXPAV1@@Z @211 ; ?AppendMultCurve@Control@@QAEXPAV1@@Z
    ?AppendMultCurve@MultCurveList@@QAEXPAVControl@@@Z @212 ; ?AppendMultCurve@MultCurveList@@QAEXPAVControl@@@Z
    ?AppendPoint@Spline3D@@QAEHPAVViewExp@@ABVPoint3@@H@Z @213 ; ?AppendPoint@Spline3D@@QAEHPAVViewExp@@ABVPoint3@@H@Z
    ?ApplyCollisionObject@SimpleParticle@@UAEHPAVCollisionObject@@@Z @214 ; ?ApplyCollisionObject@SimpleParticle@@UAEHPAVCollisionObject@@@Z
    ?ApplyEase@Control@@QAEHHAAVInterval@@@Z @215 ; ?ApplyEase@Control@@QAEHHAAVInterval@@@Z
    ?ApplyEase@EaseCurveList@@QAEHHAAVInterval@@@Z @216 ; ?ApplyEase@EaseCurveList@@QAEHHAAVInterval@@@Z
    ?ApplyForceField@SimpleParticle@@UAEXPAVForceField@@@Z @217 ; ?ApplyForceField@SimpleParticle@@UAEXPAVForceField@@@Z
    ?ApplyKeyReduction@@YAHPAVControl@@VInterval@@MHPAVKeyReduceStatus@@@Z @218 ; ?ApplyKeyReduction@@YAHPAVControl@@VInterval@@MHPAVKeyReduceStatus@@@Z
    ?ApplyOSM@GenDerivedObject@@QAEHPAVModifier@@PAVModContext@@HHPAVHObjectList@@@Z @219 ; ?ApplyOSM@GenDerivedObject@@QAEHPAVModifier@@PAVModContext@@HHPAVHObjectList@@@Z
    ?ApplyScaling@@YAXAAVMatrix3@@ABVScaleValue@@@Z @220 ; ?ApplyScaling@@YAXAAVMatrix3@@ABVScaleValue@@@Z
    ?ApplyTM@ObjectState@@QAEXPAVMatrix3@@VInterval@@@Z @221 ; ?ApplyTM@ObjectState@@QAEXPAVMatrix3@@VInterval@@@Z
    ?AssignController@EaseCurveList@@UAEHPAVAnimatable@@H@Z @222 ; ?AssignController@EaseCurveList@@UAEHPAVAnimatable@@H@Z
    ?AssignController@MultCurveList@@UAEHPAVAnimatable@@H@Z @223 ; ?AssignController@MultCurveList@@UAEHPAVAnimatable@@H@Z
    ?AutoDelete@GenDerivedObject@@UAE?AW4RefResult@@XZ @224 ; ?AutoDelete@GenDerivedObject@@UAE?AW4RefResult@@XZ
    ?AutoDelete@ReferenceTarget@@UAE?AW4RefResult@@XZ @225 ; ?AutoDelete@ReferenceTarget@@UAE?AW4RefResult@@XZ
    ?AverageTangent@Spline3D@@QAE?AVPoint3@@H@Z @226 ; ?AverageTangent@Spline3D@@QAE?AVPoint3@@H@Z
    ?Begin@Hold@@QAEXXZ            @227 ; ?Begin@Hold@@QAEXXZ
    ?BeginDrag@MoveTransformer@@UAEXAAVIPoint2@@AAVMatrix3@@@Z @228 ; ?BeginDrag@MoveTransformer@@UAEXAAVIPoint2@@AAVMatrix3@@@Z
    ?BeginDrag@RotateTransformer@@UAEXAAVIPoint2@@AAVMatrix3@@@Z @229 ; ?BeginDrag@RotateTransformer@@UAEXAAVIPoint2@@AAVMatrix3@@@Z
    ?BeginDrag@Transformer@@UAEXAAVIPoint2@@AAVMatrix3@@@Z @230 ; ?BeginDrag@Transformer@@UAEXAAVIPoint2@@AAVMatrix3@@@Z
    ?BeginEditParams@SimpleMod@@UAEXPAVIObjParam@@KPAVAnimatable@@@Z @231 ; ?BeginEditParams@SimpleMod@@UAEXPAVIObjParam@@KPAVAnimatable@@@Z
    ?BeginEditParams@SimpleObject@@UAEXPAVIObjParam@@KPAVAnimatable@@@Z @232 ; ?BeginEditParams@SimpleObject@@UAEXPAVIObjParam@@KPAVAnimatable@@@Z
    ?BeginEditParams@SimpleParticle@@UAEXPAVIObjParam@@KPAVAnimatable@@@Z @233 ; ?BeginEditParams@SimpleParticle@@UAEXPAVIObjParam@@KPAVAnimatable@@@Z
    ?BeginEditParams@SimpleShape@@UAEXPAVIObjParam@@KPAVAnimatable@@@Z @234 ; ?BeginEditParams@SimpleShape@@UAEXPAVIObjParam@@KPAVAnimatable@@@Z
    ?BeginEditParams@SimpleSpline@@UAEXPAVIObjParam@@KPAVAnimatable@@@Z @235 ; ?BeginEditParams@SimpleSpline@@UAEXPAVIObjParam@@KPAVAnimatable@@@Z
    ?BeginEditParams@SimpleWSMMod@@UAEXPAVIObjParam@@KPAVAnimatable@@@Z @236 ; ?BeginEditParams@SimpleWSMMod@@UAEXPAVIObjParam@@KPAVAnimatable@@@Z
    ?BeginEditParams@SimpleWSMObject@@UAEXPAVIObjParam@@KPAVAnimatable@@@Z @237 ; ?BeginEditParams@SimpleWSMObject@@UAEXPAVIObjParam@@KPAVAnimatable@@@Z
    ?BesselEnd@Spline3D@@QAEXH@Z   @238 ; ?BesselEnd@Spline3D@@QAEXH@Z
    ?BesselStart@Spline3D@@QAEXH@Z @239 ; ?BesselStart@Spline3D@@QAEXH@Z
    ?BoundingBox@LoftShape@@QAE?AVBox3@@HPAVMatrix3@@@Z @240 ; ?BoundingBox@LoftShape@@QAE?AVBox3@@HPAVMatrix3@@@Z
    ?BoundingRect@Spline3D@@QAEXPAUtagRECT@@PAVIPoint2@@H@Z @241 ; ?BoundingRect@Spline3D@@QAEXPAUtagRECT@@PAVIPoint2@@H@Z
    ?BroadcastNotification@@YAXH@Z @242 ; ?BroadcastNotification@@YAXH@Z
    ?BuildBoundingBox@BezierShape@@QAEXXZ @243 ; ?BuildBoundingBox@BezierShape@@QAEXXZ
    ?BuildBoundingBox@LoftObject@@QAEXH@Z @244 ; ?BuildBoundingBox@LoftObject@@QAEXH@Z
    ?BuildBoundingBox@PolyLine@@QAEXXZ @245 ; ?BuildBoundingBox@PolyLine@@QAEXXZ
    ?BuildBoundingBox@PolyShape@@QAEXXZ @246 ; ?BuildBoundingBox@PolyShape@@QAEXXZ
    ?BuildCharacter@BezFontManager@@QAEHHIMAAVBezierShape@@AAM@Z @247 ; ?BuildCharacter@BezFontManager@@QAEHHIMAAVBezierShape@@AAM@Z
    ?BuildGammaTab8@@YAXQAEMH@Z    @248 ; ?BuildGammaTab8@@YAXQAEMH@Z
    ?BuildGammaTab8@@YAXQAGMH@Z    @249 ; ?BuildGammaTab8@@YAXQAGMH@Z
    ?BuildGammaTab@@YAXQAEMH@Z     @250 ; ?BuildGammaTab@@YAXQAEMH@Z
    ?BuildGammaTab@@YAXQAGMH@Z     @251 ; ?BuildGammaTab@@YAXQAGMH@Z
    ?BuildHotTable@@YAXH@Z         @252 ; ?BuildHotTable@@YAXH@Z
    ?BuildMesh@SimpleShape@@QAEXHAAVMesh@@@Z @253 ; ?BuildMesh@SimpleShape@@QAEXHAAVMesh@@@Z
    ?BuildMesh@SimpleSpline@@QAEXHAAVMesh@@@Z @254 ; ?BuildMesh@SimpleSpline@@QAEXHAAVMesh@@@Z
    ?ButtonFlags@MouseManager@@QAEHXZ @255 ; ?ButtonFlags@MouseManager@@QAEHXZ
    ?COREGetCodeValue@@YAPAKXZ     @256 ; ?COREGetCodeValue@@YAPAKXZ
    ?CallBackDeformLocations@LoftObject@@QAEXHPAVDeformLocationCallBack@@@Z @257 ; ?CallBackDeformLocations@LoftObject@@QAEXHPAVDeformLocationCallBack@@@Z
    ?CanConvertToType@LinearShape@@UAEHVClass_ID@@@Z @258 ; ?CanConvertToType@LinearShape@@UAEHVClass_ID@@@Z
    ?CanConvertToType@LoftObject@@UAEHVClass_ID@@@Z @259 ; ?CanConvertToType@LoftObject@@UAEHVClass_ID@@@Z
    ?CanConvertToType@NurbsObject@@UAEHVClass_ID@@@Z @260 ; ?CanConvertToType@NurbsObject@@UAEHVClass_ID@@@Z
    ?CanConvertToType@Object@@UAEHVClass_ID@@@Z @261 ; ?CanConvertToType@Object@@UAEHVClass_ID@@@Z
    ?CanConvertToType@PatchObject@@UAEHVClass_ID@@@Z @262 ; ?CanConvertToType@PatchObject@@UAEHVClass_ID@@@Z
    ?CanConvertToType@SimpleObject@@UAEHVClass_ID@@@Z @263 ; ?CanConvertToType@SimpleObject@@UAEHVClass_ID@@@Z
    ?CanConvertToType@SimpleParticle@@UAEHVClass_ID@@@Z @264 ; ?CanConvertToType@SimpleParticle@@UAEHVClass_ID@@@Z
    ?CanConvertToType@SimpleShape@@UAEHVClass_ID@@@Z @265 ; ?CanConvertToType@SimpleShape@@UAEHVClass_ID@@@Z
    ?CanConvertToType@SimpleSpline@@UAEHVClass_ID@@@Z @266 ; ?CanConvertToType@SimpleSpline@@UAEHVClass_ID@@@Z
    ?CanConvertToType@SplineShape@@UAEHVClass_ID@@@Z @267 ; ?CanConvertToType@SplineShape@@UAEHVClass_ID@@@Z
    ?CanConvertToType@TriObject@@UAEHVClass_ID@@@Z @268 ; ?CanConvertToType@TriObject@@UAEHVClass_ID@@@Z
    ?CanCopyIKParams@@YAHPAVControl@@H@Z @269 ; ?CanCopyIKParams@@YAHPAVControl@@H@Z
    ?CanCopyTrack@DefNoteTrack@@UAEHVInterval@@K@Z @270 ; ?CanCopyTrack@DefNoteTrack@@UAEHVInterval@@K@Z
    ?CanPasteIKParams@@YAHPAVControl@@PAVIKClipObject@@H@Z @271 ; ?CanPasteIKParams@@YAHPAVControl@@PAVIKClipObject@@H@Z
    ?CanPasteTrack@DefNoteTrack@@UAEHPAVTrackClipObject@@VInterval@@K@Z @272 ; ?CanPasteTrack@DefNoteTrack@@UAEHPAVTrackClipObject@@VInterval@@K@Z
    ?Cancel@Hold@@QAEXXZ           @273 ; ?Cancel@Hold@@QAEXXZ
    ?CancelTransform@TransformModBox@@UAEXXZ @274 ; ?CancelTransform@TransformModBox@@UAEXXZ
    ?Cap3DS@PolyLine@@QAEHPAVCapVert@@AAVMeshCapInfo@@K@Z @275 ; ?Cap3DS@PolyLine@@QAEHPAVCapVert@@AAVMeshCapInfo@@K@Z
    ?CapMesh@MeshCapper@@QAEHAAVMesh@@AAVMeshCapInfo@@HKPAVMatrix3@@@Z @276 ; ?CapMesh@MeshCapper@@QAEHAAVMesh@@AAVMeshCapInfo@@HKPAVMatrix3@@@Z
    ?CapPatchMesh@PatchCapper@@QAEHAAVPatchMesh@@AAVPatchCapInfo@@HKPAVMatrix3@@@Z @277 ; ?CapPatchMesh@PatchCapper@@QAEHAAVPatchMesh@@AAVPatchCapInfo@@HKPAVMatrix3@@@Z
    ?CenterWindow@@YAHPAUHWND__@@0@Z @278 ; ?CenterWindow@@YAHPAUHWND__@@0@Z
    ?CentripetalParams@Spline3D@@QAEXXZ @279 ; ?CentripetalParams@Spline3D@@QAEXXZ
    ?ChannelValidity@LinearShape@@UAE?AVInterval@@HH@Z @280 ; ?ChannelValidity@LinearShape@@UAE?AVInterval@@HH@Z
    ?ChannelValidity@NurbsObject@@UAE?AVInterval@@HH@Z @281 ; ?ChannelValidity@NurbsObject@@UAE?AVInterval@@HH@Z
    ?ChannelValidity@Object@@UAE?AVInterval@@HH@Z @282 ; ?ChannelValidity@Object@@UAE?AVInterval@@HH@Z
    ?ChannelValidity@PatchObject@@UAE?AVInterval@@HH@Z @283 ; ?ChannelValidity@PatchObject@@UAE?AVInterval@@HH@Z
    ?ChannelValidity@SplineShape@@UAE?AVInterval@@HH@Z @284 ; ?ChannelValidity@SplineShape@@UAE?AVInterval@@HH@Z
    ?ChannelValidity@TriObject@@UAE?AVInterval@@HH@Z @285 ; ?ChannelValidity@TriObject@@UAE?AVInterval@@HH@Z
    ?CheckMenu@Spline3D@@QAEXPAUHMENU__@@HHH@Z @286 ; ?CheckMenu@Spline3D@@QAEXPAUHMENU__@@HHH@Z
    ?CheckObjectIntegrity@TriObject@@UAEHXZ @287 ; ?CheckObjectIntegrity@TriObject@@UAEHXZ
    ?ChordParams@Spline3D@@QAEXXZ  @288 ; ?ChordParams@Spline3D@@QAEXXZ
    ?ClassID@Animatable@@UAE?AVClass_ID@@XZ @289 ; ?ClassID@Animatable@@UAE?AVClass_ID@@XZ
    ?ClassID@MtlBaseLib@@UAE?AVClass_ID@@XZ @290 ; ?ClassID@MtlBaseLib@@UAE?AVClass_ID@@XZ
    ?ClassID@MtlLib@@UAE?AVClass_ID@@XZ @291 ; ?ClassID@MtlLib@@UAE?AVClass_ID@@XZ
    ?CleanUpLoftRefs@LoftObject@@QAEXXZ @292 ; ?CleanUpLoftRefs@LoftObject@@QAEXXZ
    ?Cleanup@RefList@@QAEXXZ       @293 ; ?Cleanup@RefList@@QAEXXZ
    ?Clear@CtrlHitLog@@QAEXXZ      @294 ; ?Clear@CtrlHitLog@@QAEXXZ
    ?Clear@HitLog@@QAEXXZ          @295 ; ?Clear@HitLog@@QAEXXZ
    ?Clear@NoteKeyTab@@QAEXXZ      @296 ; ?Clear@NoteKeyTab@@QAEXXZ
    ?Clear@ShapePSel@@QAEXH@Z      @297 ; ?Clear@ShapePSel@@QAEXH@Z
    ?Clear@TempStore@@QAEXPAX@Z    @298 ; ?Clear@TempStore@@QAEXPAX@Z
    ?ClearAll@ShapePSel@@QAEXXZ    @299 ; ?ClearAll@ShapePSel@@QAEXXZ
    ?ClearAll@ShapeSSel@@QAEXXZ    @300 ; ?ClearAll@ShapeSSel@@QAEXXZ
    ?ClearAll@ShapeVSel@@QAEXXZ    @301 ; ?ClearAll@ShapeVSel@@QAEXXZ
    ?ClearAll@TempStore@@QAEXXZ    @302 ; ?ClearAll@TempStore@@QAEXXZ
    ?ClearDispFlag@BezierShape@@QAEXK@Z @303 ; ?ClearDispFlag@BezierShape@@QAEXK@Z
    ?ClearSelection@GenControlSelectionProcessor@@MAEXXZ @304 ; ?ClearSelection@GenControlSelectionProcessor@@MAEXXZ
    ?ClearSelection@GenModSelectionProcessor@@MAEXXZ @305 ; ?ClearSelection@GenModSelectionProcessor@@MAEXXZ
    ?ClearSelection@LoftObject@@UAEXH@Z @306 ; ?ClearSelection@LoftObject@@UAEXH@Z
    ?Clone@DeformCurve@@UAEPAVReferenceTarget@@AAVRemapDir@@@Z @307 ; ?Clone@DeformCurve@@UAEPAVReferenceTarget@@AAVRemapDir@@@Z
    ?Clone@DerivedObject@@UAEPAVReferenceTarget@@AAVRemapDir@@@Z @308 ; ?Clone@DerivedObject@@UAEPAVReferenceTarget@@AAVRemapDir@@@Z
    ?Clone@DummyObject@@UAEPAVReferenceTarget@@AAVRemapDir@@@Z @309 ; ?Clone@DummyObject@@UAEPAVReferenceTarget@@AAVRemapDir@@@Z
    ?Clone@EaseCurveList@@UAEPAVReferenceTarget@@AAVRemapDir@@@Z @310 ; ?Clone@EaseCurveList@@UAEPAVReferenceTarget@@AAVRemapDir@@@Z
    ?Clone@LinearShape@@UAEPAVReferenceTarget@@AAVRemapDir@@@Z @311 ; ?Clone@LinearShape@@UAEPAVReferenceTarget@@AAVRemapDir@@@Z
    ?Clone@LoftObject@@UAEPAVReferenceTarget@@AAVRemapDir@@@Z @312 ; ?Clone@LoftObject@@UAEPAVReferenceTarget@@AAVRemapDir@@@Z
    ?Clone@MtlBaseLib@@UAEPAVReferenceTarget@@AAVRemapDir@@@Z @313 ; ?Clone@MtlBaseLib@@UAEPAVReferenceTarget@@AAVRemapDir@@@Z
    ?Clone@MtlLib@@UAEPAVReferenceTarget@@AAVRemapDir@@@Z @314 ; ?Clone@MtlLib@@UAEPAVReferenceTarget@@AAVRemapDir@@@Z
    ?Clone@MultCurveList@@UAEPAVReferenceTarget@@AAVRemapDir@@@Z @315 ; ?Clone@MultCurveList@@UAEPAVReferenceTarget@@AAVRemapDir@@@Z
    ?Clone@NurbsObject@@UAEPAVReferenceTarget@@AAVRemapDir@@@Z @316 ; ?Clone@NurbsObject@@UAEPAVReferenceTarget@@AAVRemapDir@@@Z
    ?Clone@PatchObject@@UAEPAVReferenceTarget@@AAVRemapDir@@@Z @317 ; ?Clone@PatchObject@@UAEPAVReferenceTarget@@AAVRemapDir@@@Z
    ?Clone@ReferenceTarget@@UAEPAV1@AAVRemapDir@@@Z @318 ; ?Clone@ReferenceTarget@@UAEPAV1@AAVRemapDir@@@Z
    ?Clone@SplineShape@@UAEPAVReferenceTarget@@AAVRemapDir@@@Z @319 ; ?Clone@SplineShape@@UAEPAVReferenceTarget@@AAVRemapDir@@@Z
    ?Clone@TriObject@@UAEPAVReferenceTarget@@AAVRemapDir@@@Z @320 ; ?Clone@TriObject@@UAEPAVReferenceTarget@@AAVRemapDir@@@Z
    ?Clone@WSMDerivedObject@@UAEPAVReferenceTarget@@AAVRemapDir@@@Z @321 ; ?Clone@WSMDerivedObject@@UAEPAVReferenceTarget@@AAVRemapDir@@@Z
    ?CloneSelected@GenModSelectionProcessor@@MAEXH@Z @322 ; ?CloneSelected@GenModSelectionProcessor@@MAEXH@Z
    ?CloneSelectedKeys@DefNoteTrack@@QAEXXZ @323 ; ?CloneSelectedKeys@DefNoteTrack@@QAEXXZ
    ?CloseFont@BezFontManager@@QAEHH@Z @324 ; ?CloseFont@BezFontManager@@QAEHH@Z
    ?Closed@LoftShape@@QAEHHH@Z    @325 ; ?Closed@LoftShape@@QAEHHH@Z
    ?ClosestHit@CtrlHitLog@@QAEPAVCtrlHitRecord@@XZ @326 ; ?ClosestHit@CtrlHitLog@@QAEPAVCtrlHitRecord@@XZ
    ?ClosestHit@HitLog@@QAEPAVHitRecord@@XZ @327 ; ?ClosestHit@HitLog@@QAEPAVHitRecord@@XZ
    ?CombineMaterials@@YAPAVMtl@@PAV1@0AAH1@Z @328 ; ?CombineMaterials@@YAPAVMtl@@PAV1@0AAH1@Z
    ?Command@JointParams@@QAEXPAVInterpCtrlUI@@GGPAUHWND__@@@Z @329 ; ?Command@JointParams@@QAEXPAVInterpCtrlUI@@GGPAUHWND__@@@Z
    ?Command@SpinnerControl@@UAEJGGPAUHWND__@@@Z @330 ; ?Command@SpinnerControl@@UAEJGGPAUHWND__@@@Z
    ?CompAdjBesselBezPoints@Spline3D@@QAEXH@Z @331 ; ?CompAdjBesselBezPoints@Spline3D@@QAEXH@Z
    ?CompCornerBezPoints@Spline3D@@QAEXH@Z @332 ; ?CompCornerBezPoints@Spline3D@@QAEXH@Z
    ?CompMatrix@SimpleMod@@QAE?AVMatrix3@@HAAVModContext@@AAV2@AAVInterval@@H@Z @333 ; ?CompMatrix@SimpleMod@@QAE?AVMatrix3@@HAAVModContext@@AAV2@AAVInterval@@H@Z
    ?CompNoEvalInterval@GenDerivedObject@@QAEXHVInterval@@KH@Z @334 ; ?CompNoEvalInterval@GenDerivedObject@@QAEXHVInterval@@KH@Z
    ?CompNoEvalInterval@ModApp@@UAEXHVInterval@@KH@Z @335 ; ?CompNoEvalInterval@ModApp@@UAEXHVInterval@@KH@Z
    ?CompNoEvalInterval@ObRefModApp@@UAEXHVInterval@@KH@Z @336 ; ?CompNoEvalInterval@ObRefModApp@@UAEXHVInterval@@KH@Z
    ?CompOffset@SimpleMod@@QAEXHAAVMatrix3@@0@Z @337 ; ?CompOffset@SimpleMod@@QAEXHAAVMatrix3@@0@Z
    ?CompParams@Spline3D@@QAEXXZ   @338 ; ?CompParams@Spline3D@@QAEXXZ
    ?ComputeAdjBezPts@Spline3D@@QAEXH@Z @339 ; ?ComputeAdjBezPts@Spline3D@@QAEXH@Z
    ?ComputeBezPoints@Spline3D@@QAEXXZ @340 ; ?ComputeBezPoints@Spline3D@@QAEXXZ
    ?ComputeMatrix@LoftObject@@QAE?AVMatrix3@@HM@Z @341 ; ?ComputeMatrix@LoftObject@@QAE?AVMatrix3@@HM@Z
    ?ConstrainInc@JointParams@@QAEMHMM@Z @342 ; ?ConstrainInc@JointParams@@QAEMHMM@Z
    ?ContainedShapeSelectionArray@LoftObject@@UAE?AVBitArray@@XZ @343 ; ?ContainedShapeSelectionArray@LoftObject@@UAE?AVBitArray@@XZ
    ?ContinBack@Spline3D@@QAEXH@Z  @344 ; ?ContinBack@Spline3D@@QAEXH@Z
    ?ContinFwd@Spline3D@@QAEXH@Z   @345 ; ?ContinFwd@Spline3D@@QAEXH@Z
    ?ConvertToType@LinearShape@@UAEPAVObject@@HVClass_ID@@@Z @346 ; ?ConvertToType@LinearShape@@UAEPAVObject@@HVClass_ID@@@Z
    ?ConvertToType@LoftObject@@UAEPAVObject@@HVClass_ID@@@Z @347 ; ?ConvertToType@LoftObject@@UAEPAVObject@@HVClass_ID@@@Z
    ?ConvertToType@NurbsObject@@UAEPAVObject@@HVClass_ID@@@Z @348 ; ?ConvertToType@NurbsObject@@UAEPAVObject@@HVClass_ID@@@Z
    ?ConvertToType@Object@@UAEPAV1@HVClass_ID@@@Z @349 ; ?ConvertToType@Object@@UAEPAV1@HVClass_ID@@@Z
    ?ConvertToType@PatchObject@@UAEPAVObject@@HVClass_ID@@@Z @350 ; ?ConvertToType@PatchObject@@UAEPAVObject@@HVClass_ID@@@Z
    ?ConvertToType@SimpleObject@@UAEPAVObject@@HVClass_ID@@@Z @351 ; ?ConvertToType@SimpleObject@@UAEPAVObject@@HVClass_ID@@@Z
    ?ConvertToType@SimpleParticle@@UAEPAVObject@@HVClass_ID@@@Z @352 ; ?ConvertToType@SimpleParticle@@UAEPAVObject@@HVClass_ID@@@Z
    ?ConvertToType@SimpleShape@@UAEPAVObject@@HVClass_ID@@@Z @353 ; ?ConvertToType@SimpleShape@@UAEPAVObject@@HVClass_ID@@@Z
    ?ConvertToType@SimpleSpline@@UAEPAVObject@@HVClass_ID@@@Z @354 ; ?ConvertToType@SimpleSpline@@UAEPAVObject@@HVClass_ID@@@Z
    ?ConvertToType@SplineShape@@UAEPAVObject@@HVClass_ID@@@Z @355 ; ?ConvertToType@SplineShape@@UAEPAVObject@@HVClass_ID@@@Z
    ?ConvertToType@TriObject@@UAEPAVObject@@HVClass_ID@@@Z @356 ; ?ConvertToType@TriObject@@UAEPAVObject@@HVClass_ID@@@Z
    ?ConvertValidity@LinearShape@@QAE?AVInterval@@H@Z @357 ; ?ConvertValidity@LinearShape@@QAE?AVInterval@@H@Z
    ?ConvertValidity@PatchObject@@QAE?AVInterval@@H@Z @358 ; ?ConvertValidity@PatchObject@@QAE?AVInterval@@H@Z
    ?ConvertValidity@SplineShape@@QAE?AVInterval@@H@Z @359 ; ?ConvertValidity@SplineShape@@QAE?AVInterval@@H@Z
    ?ConvertValidity@TriObject@@QAE?AVInterval@@H@Z @360 ; ?ConvertValidity@TriObject@@QAE?AVInterval@@H@Z
    ?CopyChannelLocks@Object@@QAEXPAV1@K@Z @361 ; ?CopyChannelLocks@Object@@QAEXPAV1@K@Z
    ?CopyIKParams@@YAPAVIKClipObject@@PAVControl@@H@Z @362 ; ?CopyIKParams@@YAPAVIKClipObject@@PAVControl@@H@Z
    ?CopyMtl@ObjectState@@QAEXABV1@@Z @363 ; ?CopyMtl@ObjectState@@QAEXABV1@@Z
    ?CopySubTexmap@MtlBase@@QAEXPAUHWND__@@HH@Z @364 ; ?CopySubTexmap@MtlBase@@QAEXPAUHWND__@@HH@Z
    ?CopyTM@ObjectState@@QAEXABV1@@Z @365 ; ?CopyTM@ObjectState@@QAEXABV1@@Z
    ?CopyTrack@DefNoteTrack@@UAEPAVTrackClipObject@@VInterval@@K@Z @366 ; ?CopyTrack@DefNoteTrack@@UAEPAVTrackClipObject@@VInterval@@K@Z
    ?CopyValidity@TriObject@@AAEXPAV1@K@Z @367 ; ?CopyValidity@TriObject@@AAEXPAV1@K@Z
    ?CopyVitalDataTo@LoftObject@@QAEXAAV1@@Z @368 ; ?CopyVitalDataTo@LoftObject@@QAEXAAV1@@Z
    ?Count@SubClassList@@QAEHH@Z   @369 ; ?Count@SubClassList@@QAEHH@Z
    ?Create@Spline3D@@QAEHPAVViewExp@@HHHVIPoint2@@PAVMatrix3@@@Z @370 ; ?Create@Spline3D@@QAEHPAVViewExp@@HHHVIPoint2@@PAVMatrix3@@@Z
    ?CreateCPParamMap@@YAPAVIParamMap@@PAVParamUIDesc@@HPAVIParamArray@@PAVInterface@@PAUHINSTANCE__@@PAD4K@Z @371 ; ?CreateCPParamMap@@YAPAVIParamMap@@PAVParamUIDesc@@HPAVIParamArray@@PAVInterface@@PAUHINSTANCE__@@PAD4K@Z
    ?CreateColorPicker@@YAPAVColorPicker@@PAUHWND__@@KPAVIPoint2@@PAVHSVCallback@@PADH@Z @372 ; ?CreateColorPicker@@YAPAVColorPicker@@PAUHWND__@@KPAVIPoint2@@PAVHSVCallback@@PADH@Z
    ?CreateDerivedObject@@YAPAVIDerivedObject@@PAVObject@@@Z @373 ; ?CreateDerivedObject@@YAPAVIDerivedObject@@PAVObject@@@Z
    ?CreateEditModes@LoftObject@@QAEXPAVIObjParam@@@Z @374 ; ?CreateEditModes@LoftObject@@QAEXPAVIObjParam@@@Z
    ?CreateIKSystem@@YAPAVIKSystem@@H@Z @375 ; ?CreateIKSystem@@YAPAVIKSystem@@H@Z
    ?CreateINodeTransformed@@YAPAVINodeTransformed@@PAVINode@@VMatrix3@@H@Z @376 ; ?CreateINodeTransformed@@YAPAVINodeTransformed@@PAVINode@@VMatrix3@@H@Z
    ?CreateIOffScreenBuf@@YAPAVIOffScreenBuf@@PAUHWND__@@@Z @377 ; ?CreateIOffScreenBuf@@YAPAVIOffScreenBuf@@PAUHWND__@@@Z
    ?CreateInstance@@YAPAXKVClass_ID@@@Z @378 ; ?CreateInstance@@YAPAXKVClass_ID@@@Z
    ?CreateInterpFloat@@YAPAVControl@@XZ @379 ; ?CreateInterpFloat@@YAPAVControl@@XZ
    ?CreateInterpPoint3@@YAPAVControl@@XZ @380 ; ?CreateInterpPoint3@@YAPAVControl@@XZ
    ?CreateInterpPosition@@YAPAVControl@@XZ @381 ; ?CreateInterpPosition@@YAPAVControl@@XZ
    ?CreateInterpRotation@@YAPAVControl@@XZ @382 ; ?CreateInterpRotation@@YAPAVControl@@XZ
    ?CreateInterpScale@@YAPAVControl@@XZ @383 ; ?CreateInterpScale@@YAPAVControl@@XZ
    ?CreateLookatControl@@YAPAVControl@@XZ @384 ; ?CreateLookatControl@@YAPAVControl@@XZ
    ?CreateModalParamMap@@YAHPAVParamUIDesc@@HPAVIParamArray@@HPAUHINSTANCE__@@PADPAUHWND__@@PAVParamMapUserDlgProc@@@Z @385 ; ?CreateModalParamMap@@YAHPAVParamUIDesc@@HPAVIParamArray@@HPAUHINSTANCE__@@PADPAUHWND__@@PAVParamMapUserDlgProc@@@Z
    ?CreateNewTriObject@@YAPAVTriObject@@XZ @386 ; ?CreateNewTriObject@@YAPAVTriObject@@XZ
    ?CreatePRSControl@@YAPAVControl@@XZ @387 ; ?CreatePRSControl@@YAPAVControl@@XZ
    ?CreateParameterBlock@@YAPAVIParamBlock@@PAVParamBlockDesc@@H@Z @388 ; ?CreateParameterBlock@@YAPAVIParamBlock@@PAVParamBlockDesc@@H@Z
    ?CreateParameterBlock@@YAPAVIParamBlock@@PAVParamBlockDescID@@HK@Z @389 ; ?CreateParameterBlock@@YAPAVIParamBlock@@PAVParamBlockDescID@@HK@Z
    ?CreateRParamMap@@YAPAVIParamMap@@PAVParamUIDesc@@HPAVIParamArray@@PAVIRendParams@@PAUHINSTANCE__@@PAD4K@Z @390 ; ?CreateRParamMap@@YAPAVIParamMap@@PAVParamUIDesc@@HPAVIParamArray@@PAVIRendParams@@PAUHINSTANCE__@@PAD4K@Z
    ?CreateTriObjRep@LinearShape@@QAEPAVObject@@H@Z @391 ; ?CreateTriObjRep@LinearShape@@QAEPAVObject@@H@Z
    ?CreateTriObjRep@LoftObject@@QAEPAVObject@@H@Z @392 ; ?CreateTriObjRep@LoftObject@@QAEPAVObject@@H@Z
    ?CreateTriObjRep@SimpleShape@@QAEPAVObject@@H@Z @393 ; ?CreateTriObjRep@SimpleShape@@QAEPAVObject@@H@Z
    ?CreateTriObjRep@SimpleSpline@@QAEPAVObject@@H@Z @394 ; ?CreateTriObjRep@SimpleSpline@@QAEPAVObject@@H@Z
    ?CreateTriObjRep@SplineShape@@QAEPAVObject@@H@Z @395 ; ?CreateTriObjRep@SplineShape@@QAEPAVObject@@H@Z
    ?CreateTriObjRep@TriObject@@QAEPAVObject@@H@Z @396 ; ?CreateTriObjRep@TriObject@@QAEPAVObject@@H@Z
    ?CreateWSDerivedObject@@YAPAVIDerivedObject@@PAVObject@@@Z @397 ; ?CreateWSDerivedObject@@YAPAVIDerivedObject@@PAVObject@@@Z
    ?CurveClosed@LinearShape@@UAEHHH@Z @398 ; ?CurveClosed@LinearShape@@UAEHHH@Z
    ?CurveClosed@SimpleShape@@UAEHHH@Z @399 ; ?CurveClosed@SimpleShape@@UAEHHH@Z
    ?CurveClosed@SimpleSpline@@UAEHHH@Z @400 ; ?CurveClosed@SimpleSpline@@UAEHHH@Z
    ?CurveClosed@SplineShape@@UAEHHH@Z @401 ; ?CurveClosed@SplineShape@@UAEHHH@Z
    ?CurveLength@PolyLine@@QAEMXZ  @402 ; ?CurveLength@PolyLine@@QAEMXZ
    ?DeSelect@GenControlSelectionProcessor@@MAEXPAVViewExp@@H@Z @403 ; ?DeSelect@GenControlSelectionProcessor@@MAEXPAVViewExp@@H@Z
    ?DeSelect@GenModSelectionProcessor@@MAEXPAVViewExp@@H@Z @404 ; ?DeSelect@GenModSelectionProcessor@@MAEXPAVViewExp@@H@Z
    ?DeactivateMapsInTree@MtlBase@@QAEXXZ @405 ; ?DeactivateMapsInTree@MtlBase@@QAEXXZ
    ?DecodeUniverseValue@@YAMPADPAH@Z @406 ; ?DecodeUniverseValue@@YAMPADPAH@Z
    ?DecrActive@Texmap@@QAEXXZ     @407 ; ?DecrActive@Texmap@@QAEXXZ
    ?DeepCopy@BezierShape@@QAEXPAV1@K@Z @408 ; ?DeepCopy@BezierShape@@QAEXPAV1@K@Z
    ?DeepCopy@PolyShape@@QAEXPAV1@K@Z @409 ; ?DeepCopy@PolyShape@@QAEXPAV1@K@Z
    ?Deform@LinearShape@@UAEXPAVDeformer@@H@Z @410 ; ?Deform@LinearShape@@UAEXPAVDeformer@@H@Z
    ?Deform@NurbsObject@@UAEXPAVDeformer@@H@Z @411 ; ?Deform@NurbsObject@@UAEXPAVDeformer@@H@Z
    ?Deform@Object@@UAEXPAVDeformer@@H@Z @412 ; ?Deform@Object@@UAEXPAVDeformer@@H@Z
    ?Deform@PatchObject@@UAEXPAVDeformer@@H@Z @413 ; ?Deform@PatchObject@@UAEXPAVDeformer@@H@Z
    ?Deform@SplineShape@@UAEXPAVDeformer@@H@Z @414 ; ?Deform@SplineShape@@UAEXPAVDeformer@@H@Z
    ?Deform@TriObject@@UAEXPAVDeformer@@H@Z @415 ; ?Deform@TriObject@@UAEXPAVDeformer@@H@Z
    ?Delete@PolyLine@@QAEXH@Z      @416 ; ?Delete@PolyLine@@QAEXH@Z
    ?Delete@PolyShape@@QAEXH@Z     @417 ; ?Delete@PolyShape@@QAEXH@Z
    ?Delete@ShapePSel@@QAEXH@Z     @418 ; ?Delete@ShapePSel@@QAEXH@Z
    ?Delete@ShapeSSel@@QAEXH@Z     @419 ; ?Delete@ShapeSSel@@QAEXH@Z
    ?Delete@ShapeVSel@@QAEXH@Z     @420 ; ?Delete@ShapeVSel@@QAEXH@Z
    ?DeleteAll@MtlBaseLib@@QAEXXZ  @421 ; ?DeleteAll@MtlBaseLib@@QAEXXZ
    ?DeleteAll@MtlLib@@QAEXXZ      @422 ; ?DeleteAll@MtlLib@@QAEXXZ
    ?DeleteAllRefs@ReferenceMaker@@QAE?AW4RefResult@@XZ @423 ; ?DeleteAllRefs@ReferenceMaker@@QAE?AW4RefResult@@XZ
    ?DeleteAllRefsFromMe@ReferenceMaker@@QAE?AW4RefResult@@XZ @424 ; ?DeleteAllRefsFromMe@ReferenceMaker@@QAE?AW4RefResult@@XZ
    ?DeleteAllRefsToMe@ReferenceTarget@@UAE?AW4RefResult@@XZ @425 ; ?DeleteAllRefsToMe@ReferenceTarget@@UAE?AW4RefResult@@XZ
    ?DeleteAppDataChunk@@YAHPAPAXAAKPAD@Z @426 ; ?DeleteAppDataChunk@@YAHPAPAXAAKPAD@Z
    ?DeleteCache@GenDerivedObject@@IAEXXZ @427 ; ?DeleteCache@GenDerivedObject@@IAEXXZ
    ?DeleteCache@ModApp@@UAEXXZ    @428 ; ?DeleteCache@ModApp@@UAEXXZ
    ?DeleteCrossSection@LoftObject@@QAEXH@Z @429 ; ?DeleteCrossSection@LoftObject@@QAEXH@Z
    ?DeleteEaseCurve@Control@@QAEXH@Z @430 ; ?DeleteEaseCurve@Control@@QAEXH@Z
    ?DeleteEaseCurve@EaseCurveList@@QAEXH@Z @431 ; ?DeleteEaseCurve@EaseCurveList@@QAEXH@Z
    ?DeleteEditModes@LoftObject@@QAEXPAVIObjParam@@@Z @432 ; ?DeleteEditModes@LoftObject@@QAEXPAVIObjParam@@@Z
    ?DeleteINodeTransformed@@YAXPAVINodeTransformed@@@Z @433 ; ?DeleteINodeTransformed@@YAXPAVINodeTransformed@@@Z
    ?DeleteItem@RefList@@QAE?AW4RefResult@@PAVReferenceMaker@@H@Z @434 ; ?DeleteItem@RefList@@QAE?AW4RefResult@@PAVReferenceMaker@@H@Z
    ?DeleteKeys@DefNoteTrack@@UAEXK@Z @435 ; ?DeleteKeys@DefNoteTrack@@UAEXK@Z
    ?DeleteKnot@Spline3D@@QAEHH@Z  @436 ; ?DeleteKnot@Spline3D@@QAEHH@Z
    ?DeleteMe@ReferenceMaker@@QAEXXZ @437 ; ?DeleteMe@ReferenceMaker@@QAEXXZ
    ?DeleteModifier@GenDerivedObject@@UAEXH@Z @438 ; ?DeleteModifier@GenDerivedObject@@UAEXH@Z
    ?DeleteMultCurve@Control@@QAEXH@Z @439 ; ?DeleteMultCurve@Control@@QAEXH@Z
    ?DeleteMultCurve@MultCurveList@@QAEXH@Z @440 ; ?DeleteMultCurve@MultCurveList@@QAEXH@Z
    ?DeleteNoteTrack@Animatable@@QAEXPAVNoteTrack@@H@Z @441 ; ?DeleteNoteTrack@Animatable@@QAEXPAVNoteTrack@@H@Z
    ?DeleteObj@ObjectState@@QAEXH@Z @442 ; ?DeleteObj@ObjectState@@QAEXH@Z
    ?DeletePath@LoftObject@@QAEXXZ @443 ; ?DeletePath@LoftObject@@QAEXXZ
    ?DeleteReference@ReferenceMaker@@QAE?AW4RefResult@@H@Z @444 ; ?DeleteReference@ReferenceMaker@@QAE?AW4RefResult@@H@Z
    ?DeleteSelectedCrossSections@LoftObject@@QAEXXZ @445 ; ?DeleteSelectedCrossSections@LoftObject@@QAEXXZ
    ?DeleteShapeRefs@LoftObject@@QAEHH@Z @446 ; ?DeleteShapeRefs@LoftObject@@QAEHH@Z
    ?DeleteSpline@BezierShape@@QAEHH@Z @447 ; ?DeleteSpline@BezierShape@@QAEHH@Z
    ?DeleteThis@Animatable@@UAEXXZ @448 ; ?DeleteThis@Animatable@@UAEXXZ
    ?DeleteThis@MtlBaseLib@@UAEXXZ @449 ; ?DeleteThis@MtlBaseLib@@UAEXXZ
    ?DeleteThis@MtlLib@@UAEXXZ     @450 ; ?DeleteThis@MtlLib@@UAEXXZ
    ?DeleteTime@DefNoteTrack@@UAEXVInterval@@K@Z @451 ; ?DeleteTime@DefNoteTrack@@UAEXVInterval@@K@Z
    ?DerotateCrossSection@LoftObject@@QAEXH@Z @452 ; ?DerotateCrossSection@LoftObject@@QAEXH@Z
    ?DerotateSelectedCrossSections@LoftObject@@QAEXXZ @453 ; ?DerotateSelectedCrossSections@LoftObject@@QAEXXZ
    ?Description@DeletedRestore@@UAE?AVCStr@@XZ @454 ; ?Description@DeletedRestore@@UAE?AVCStr@@XZ
    ?Description@DllDesc@@QAEPBDXZ @455 ; ?Description@DllDesc@@QAEPBDXZ
    ?DestroyCPParamMap@@YAXPAVIParamMap@@@Z @456 ; ?DestroyCPParamMap@@YAXPAVIParamMap@@@Z
    ?DestroyIOffScreenBuf@@YAXPAVIOffScreenBuf@@@Z @457 ; ?DestroyIOffScreenBuf@@YAXPAVIOffScreenBuf@@@Z
    ?DestroyObjectDataReaders@@YAXXZ @458 ; ?DestroyObjectDataReaders@@YAXXZ
    ?DestroyRParamMap@@YAXPAVIParamMap@@@Z @459 ; ?DestroyRParamMap@@YAXPAVIParamMap@@@Z
    ?Disable@ModApp@@QAEXXZ        @460 ; ?Disable@ModApp@@QAEXXZ
    ?DisableAccelerators@@YAXXZ    @461 ; ?DisableAccelerators@@YAXXZ
    ?DisableDisplay@DummyObject@@QAEXXZ @462 ; ?DisableDisplay@DummyObject@@QAEXXZ
    ?DisableEaseCurve@EaseCurveList@@QAEXH@Z @463 ; ?DisableEaseCurve@EaseCurveList@@QAEXH@Z
    ?DisableMultCurve@MultCurveList@@QAEXH@Z @464 ; ?DisableMultCurve@MultCurveList@@QAEXH@Z
    ?DisableUndo@Hold@@QAEXXZ      @465 ; ?DisableUndo@Hold@@QAEXXZ
    ?DispPipeList@GenDerivedObject@@QAEXPAVPipeListProc@@H@Z @466 ; ?DispPipeList@GenDerivedObject@@QAEXPAVPipeListProc@@H@Z
    ?DispPipeList@ModApp@@UAEXPAVPipeListProc@@H@Z @467 ; ?DispPipeList@ModApp@@UAEXPAVPipeListProc@@H@Z
    ?DispPipeList@ObRefModApp@@UAEXPAVPipeListProc@@H@Z @468 ; ?DispPipeList@ObRefModApp@@UAEXPAVPipeListProc@@H@Z
    ?Display@DummyObject@@UAEHHPAVINode@@PAVViewExp@@H@Z @469 ; ?Display@DummyObject@@UAEHHPAVINode@@PAVViewExp@@H@Z
    ?Display@GenDerivedObject@@UAEHHPAVINode@@PAVViewExp@@H@Z @470 ; ?Display@GenDerivedObject@@UAEHHPAVINode@@PAVViewExp@@H@Z
    ?Display@LinearShape@@UAEHHPAVINode@@PAVViewExp@@H@Z @471 ; ?Display@LinearShape@@UAEHHPAVINode@@PAVViewExp@@H@Z
    ?Display@LoftObject@@UAEHHPAVINode@@PAVViewExp@@H@Z @472 ; ?Display@LoftObject@@UAEHHPAVINode@@PAVViewExp@@H@Z
    ?Display@LoftShape@@QAEXHPAVINode@@PAVViewExp@@H@Z @473 ; ?Display@LoftShape@@QAEXHPAVINode@@PAVViewExp@@H@Z
    ?Display@ModApp@@UAEHHPAVINode@@PAVViewExp@@H@Z @474 ; ?Display@ModApp@@UAEHHPAVINode@@PAVViewExp@@H@Z
    ?Display@NurbsObject@@UAEHHPAVINode@@PAVViewExp@@H@Z @475 ; ?Display@NurbsObject@@UAEHHPAVINode@@PAVViewExp@@H@Z
    ?Display@PatchObject@@UAEHHPAVINode@@PAVViewExp@@H@Z @476 ; ?Display@PatchObject@@UAEHHPAVINode@@PAVViewExp@@H@Z
    ?Display@SimpleMod@@UAEHHPAVINode@@PAVViewExp@@HPAVModContext@@@Z @477 ; ?Display@SimpleMod@@UAEHHPAVINode@@PAVViewExp@@HPAVModContext@@@Z
    ?Display@SimpleObject@@UAEHHPAVINode@@PAVViewExp@@H@Z @478 ; ?Display@SimpleObject@@UAEHHPAVINode@@PAVViewExp@@H@Z
    ?Display@SimpleParticle@@UAEHHPAVINode@@PAVViewExp@@H@Z @479 ; ?Display@SimpleParticle@@UAEHHPAVINode@@PAVViewExp@@H@Z
    ?Display@SimpleShape@@UAEHHPAVINode@@PAVViewExp@@H@Z @480 ; ?Display@SimpleShape@@UAEHHPAVINode@@PAVViewExp@@H@Z
    ?Display@SimpleSpline@@UAEHHPAVINode@@PAVViewExp@@H@Z @481 ; ?Display@SimpleSpline@@UAEHHPAVINode@@PAVViewExp@@H@Z
    ?Display@SimpleWSMObject@@UAEHHPAVINode@@PAVViewExp@@H@Z @482 ; ?Display@SimpleWSMObject@@UAEHHPAVINode@@PAVViewExp@@H@Z
    ?Display@SplineShape@@UAEHHPAVINode@@PAVViewExp@@H@Z @483 ; ?Display@SplineShape@@UAEHHPAVINode@@PAVViewExp@@H@Z
    ?Display@TriObject@@UAEHHPAVINode@@PAVViewExp@@H@Z @484 ; ?Display@TriObject@@UAEHHPAVINode@@PAVViewExp@@H@Z
    ?DisplayGammaCorrect@GammaMgr@@QAE?AVColor@@V2@@Z @485 ; ?DisplayGammaCorrect@GammaMgr@@QAE?AVColor@@V2@@Z
    ?DisplayNewLevel@LoftObject@@QAEXXZ @486 ; ?DisplayNewLevel@LoftObject@@QAEXXZ
    ?DisplayVertTicksDuringCreation@SimpleSpline@@UAEHXZ @487 ; ?DisplayVertTicksDuringCreation@SimpleSpline@@UAEHXZ
    ?DlgProc@SimpleSplineDlgProc@@UAEHHPAVIParamMap@@PAUHWND__@@IIJ@Z @488 ; ?DlgProc@SimpleSplineDlgProc@@UAEHHPAVIParamMap@@PAUHWND__@@IIJ@Z
    ?DoCylindricalMapIcon@@YAXHMMAAVPolyLineProc@@@Z @489 ; ?DoCylindricalMapIcon@@YAXHMMAAVPolyLineProc@@@Z
    ?DoGetPath@LoftObject@@UAEHPAVIObjParam@@PAVINode@@@Z @490 ; ?DoGetPath@LoftObject@@UAEHPAVIObjParam@@PAVINode@@@Z
    ?DoGetShape@LoftObject@@UAEHPAVIObjParam@@PAVINode@@@Z @491 ; ?DoGetShape@LoftObject@@UAEHPAVIObjParam@@PAVINode@@@Z
    ?DoModifiedBox@@YAXAAVBox3@@AAVDeformer@@AAVPolyLineProc@@@Z @492 ; ?DoModifiedBox@@YAXAAVBox3@@AAVDeformer@@AAVPolyLineProc@@@Z
    ?DoModifiedLimit@@YAXAAVBox3@@MHAAVDeformer@@AAVPolyLineProc@@@Z @493 ; ?DoModifiedLimit@@YAXAAVBox3@@MHAAVDeformer@@AAVPolyLineProc@@@Z
    ?DoPlanarMapIcon@@YAXHMMAAVPolyLineProc@@@Z @494 ; ?DoPlanarMapIcon@@YAXHMMAAVPolyLineProc@@@Z
    ?DoSphericalMapIcon@@YAXHMAAVPolyLineProc@@@Z @495 ; ?DoSphericalMapIcon@@YAXHMAAVPolyLineProc@@@Z
    ?DoTransform@MoveCtrlApparatus@@UAEXPAVViewExp@@@Z @496 ; ?DoTransform@MoveCtrlApparatus@@UAEXPAVViewExp@@@Z
    ?DoTransform@MoveModBox@@UAEXPAVViewExp@@@Z @497 ; ?DoTransform@MoveModBox@@UAEXPAVViewExp@@@Z
    ?DoTransform@RotateCtrlApparatus@@UAEXPAVViewExp@@@Z @498 ; ?DoTransform@RotateCtrlApparatus@@UAEXPAVViewExp@@@Z
    ?DoTransform@RotateModBox@@UAEXPAVViewExp@@@Z @499 ; ?DoTransform@RotateModBox@@UAEXPAVViewExp@@@Z
    ?DoTransform@ScaleCtrlApparatus@@UAEXPAVViewExp@@@Z @500 ; ?DoTransform@ScaleCtrlApparatus@@UAEXPAVViewExp@@@Z
    ?DoTransform@ScaleModBox@@UAEXPAVViewExp@@@Z @501 ; ?DoTransform@ScaleModBox@@UAEXPAVViewExp@@@Z
    ?DoesFileExist@@YAHPBD@Z       @502 ; ?DoesFileExist@@YAHPBD@Z
    ?DrawButton@@YAXPAUHDC__@@UtagRECT@@H@Z @503 ; ?DrawButton@@YAXPAUHDC__@@UtagRECT@@H@Z
    ?DrawCenterMark@@YAXAAVPolyLineProc@@AAVBox3@@@Z @504 ; ?DrawCenterMark@@YAXAAVPolyLineProc@@AAVBox3@@@Z
    ?DrawCurve@Spline3D@@QAEXPAVGraphicsWindow@@PAVMaterial@@@Z @505 ; ?DrawCurve@Spline3D@@QAEXPAVGraphicsWindow@@PAVMaterial@@@Z
    ?DrawIconButton@@YAXPAUHDC__@@PAUHBITMAP__@@AAVBox2@@2H@Z @506 ; ?DrawIconButton@@YAXPAUHDC__@@PAUHBITMAP__@@AAVBox2@@2H@Z
    ?DrawPhase@Spline3D@@QAEHXZ    @507 ; ?DrawPhase@Spline3D@@QAEHXZ
    ?Dump@PolyLine@@QAEXPAD@Z      @508 ; ?Dump@PolyLine@@QAEXPAD@Z
    ?Dump@PolyShape@@QAEXPAD@Z     @509 ; ?Dump@PolyShape@@QAEXPAD@Z
    ?Dump@Spline3D@@QAEXH@Z        @510 ; ?Dump@Spline3D@@QAEXH@Z
    ?DumpSections@LoftObject@@QAEXPAD@Z @511 ; ?DumpSections@LoftObject@@QAEXPAD@Z
    ?DuplicateSelectedSections@LoftObject@@QAEXHH@Z @512 ; ?DuplicateSelectedSections@LoftObject@@QAEXHH@Z
    ?EditTrackParams@DefNoteTrack@@UAEXHPAVParamDimensionBase@@PADPAUHWND__@@PAVIObjParam@@K@Z @513 ; ?EditTrackParams@DefNoteTrack@@UAEXHPAVParamDimensionBase@@PADPAUHWND__@@PAVIObjParam@@K@Z
    ?Empty@ShapePSel@@QAEXXZ       @514 ; ?Empty@ShapePSel@@QAEXXZ
    ?Empty@ShapeSSel@@QAEXXZ       @515 ; ?Empty@ShapeSSel@@QAEXXZ
    ?Empty@ShapeVSel@@QAEXXZ       @516 ; ?Empty@ShapeVSel@@QAEXXZ
    ?Enable@GammaMgr@@QAEXH@Z      @517 ; ?Enable@GammaMgr@@QAEXH@Z
    ?Enable@ModApp@@QAEXXZ         @518 ; ?Enable@ModApp@@QAEXXZ
    ?EnableAccelerators@@YAXXZ     @519 ; ?EnableAccelerators@@YAXXZ
    ?EnableDisable@JointParams@@QAEXPAVInterpCtrlUI@@@Z @520 ; ?EnableDisable@JointParams@@QAEXPAVInterpCtrlUI@@@Z
    ?EnableDisplay@DummyObject@@QAEXXZ @521 ; ?EnableDisplay@DummyObject@@QAEXXZ
    ?EnableEaseCurve@EaseCurveList@@QAEXH@Z @522 ; ?EnableEaseCurve@EaseCurveList@@QAEXH@Z
    ?EnableMultCurve@MultCurveList@@QAEXH@Z @523 ; ?EnableMultCurve@MultCurveList@@QAEXH@Z
    ?EnableORTs@Control@@UAEXH@Z   @524 ; ?EnableORTs@Control@@UAEXH@Z
    ?EnableUndo@Hold@@QAEXXZ       @525 ; ?EnableUndo@Hold@@QAEXXZ
    ?EnableUndoDebugPrintout@@YAXH@Z @526 ; ?EnableUndoDebugPrintout@@YAXH@Z
    ?End@Hold@@QAEXXZ              @527 ; ?End@Hold@@QAEXXZ
    ?EndDialog@JointParams@@QAEXPAVInterpCtrlUI@@H@Z @528 ; ?EndDialog@JointParams@@QAEXPAVInterpCtrlUI@@H@Z
    ?EndDrag@Transformer@@UAEXAAVIPoint2@@@Z @529 ; ?EndDrag@Transformer@@UAEXAAVIPoint2@@@Z
    ?EndEditParams@SimpleMod@@UAEXPAVIObjParam@@KPAVAnimatable@@@Z @530 ; ?EndEditParams@SimpleMod@@UAEXPAVIObjParam@@KPAVAnimatable@@@Z
    ?EndEditParams@SimpleObject@@UAEXPAVIObjParam@@KPAVAnimatable@@@Z @531 ; ?EndEditParams@SimpleObject@@UAEXPAVIObjParam@@KPAVAnimatable@@@Z
    ?EndEditParams@SimpleParticle@@UAEXPAVIObjParam@@KPAVAnimatable@@@Z @532 ; ?EndEditParams@SimpleParticle@@UAEXPAVIObjParam@@KPAVAnimatable@@@Z
    ?EndEditParams@SimpleShape@@UAEXPAVIObjParam@@KPAVAnimatable@@@Z @533 ; ?EndEditParams@SimpleShape@@UAEXPAVIObjParam@@KPAVAnimatable@@@Z
    ?EndEditParams@SimpleSpline@@UAEXPAVIObjParam@@KPAVAnimatable@@@Z @534 ; ?EndEditParams@SimpleSpline@@UAEXPAVIObjParam@@KPAVAnimatable@@@Z
    ?EndEditParams@SimpleWSMMod@@UAEXPAVIObjParam@@KPAVAnimatable@@@Z @535 ; ?EndEditParams@SimpleWSMMod@@UAEXPAVIObjParam@@KPAVAnimatable@@@Z
    ?EndEditParams@SimpleWSMObject@@UAEXPAVIObjParam@@KPAVAnimatable@@@Z @536 ; ?EndEditParams@SimpleWSMObject@@UAEXPAVIObjParam@@KPAVAnimatable@@@Z
    ?EndHold@LoftRestore@@UAEXXZ   @537 ; ?EndHold@LoftRestore@@UAEXXZ
    ?Entry@BezFontMgrEnumProc@@QAGHAAVBezFontInfo@@JPAVDllData@@@Z @538 ; ?Entry@BezFontMgrEnumProc@@QAGHAAVBezFontInfo@@JPAVDllData@@@Z
    ?EnumAnimTree@Animatable@@QAEHPAVAnimEnum@@PAV1@H@Z @539 ; ?EnumAnimTree@Animatable@@QAEHPAVAnimEnum@@PAV1@H@Z
    ?EnumAuxFiles@MtlBase@@UAEXAAVNameEnumCallback@@K@Z @540 ; ?EnumAuxFiles@MtlBase@@UAEXAAVNameEnumCallback@@K@Z
    ?EnumAuxFiles@ReferenceMaker@@UAEXAAVNameEnumCallback@@K@Z @541 ; ?EnumAuxFiles@ReferenceMaker@@UAEXAAVNameEnumCallback@@K@Z
    ?EnumDependents@ReferenceMaker@@UAEHPAVDependentEnumProc@@@Z @542 ; ?EnumDependents@ReferenceMaker@@UAEHPAVDependentEnumProc@@@Z
    ?EnumDependents@ReferenceTarget@@UAEHPAVDependentEnumProc@@@Z @543 ; ?EnumDependents@ReferenceTarget@@UAEHPAVDependentEnumProc@@@Z
    ?EnumModContexts@Modifier@@QAEXPAVModContextEnumProc@@@Z @544 ; ?EnumModContexts@Modifier@@QAEXPAVModContextEnumProc@@@Z
    ?EnumerateFonts@BezFontManager@@QAEXAAVBezFontEnumProc@@J@Z @545 ; ?EnumerateFonts@BezFontManager@@QAEXAAVBezFontEnumProc@@J@Z
    ?EstablishMoveLimits@LoftObject@@QAEXH@Z @546 ; ?EstablishMoveLimits@LoftObject@@QAEXH@Z
    ?Eval@DummyObject@@UAE?AVObjectState@@H@Z @547 ; ?Eval@DummyObject@@UAE?AVObjectState@@H@Z
    ?Eval@GenDerivedObject@@QAE?AVObjectState@@HPAVMatrix3@@VInterval@@KPAVINode@@@Z @548 ; ?Eval@GenDerivedObject@@QAE?AVObjectState@@HPAVMatrix3@@VInterval@@KPAVINode@@@Z
    ?Eval@LinearShape@@UAE?AVObjectState@@H@Z @549 ; ?Eval@LinearShape@@UAE?AVObjectState@@H@Z
    ?Eval@LoftObject@@UAE?AVObjectState@@H@Z @550 ; ?Eval@LoftObject@@UAE?AVObjectState@@H@Z
    ?Eval@ModApp@@UAE?AVObjectState@@HKPAVModifier@@PAVINode@@H@Z @551 ; ?Eval@ModApp@@UAE?AVObjectState@@HKPAVModifier@@PAVINode@@H@Z
    ?Eval@MoveTransformer@@QAE?AVPoint3@@PAVViewExp@@H@Z @552 ; ?Eval@MoveTransformer@@QAE?AVPoint3@@PAVViewExp@@H@Z
    ?Eval@NurbsObject@@UAE?AVObjectState@@H@Z @553 ; ?Eval@NurbsObject@@UAE?AVObjectState@@H@Z
    ?Eval@ObRefModApp@@UAE?AVObjectState@@HKPAVModifier@@PAVINode@@H@Z @554 ; ?Eval@ObRefModApp@@UAE?AVObjectState@@HKPAVModifier@@PAVINode@@H@Z
    ?Eval@PatchObject@@UAE?AVObjectState@@H@Z @555 ; ?Eval@PatchObject@@UAE?AVObjectState@@H@Z
    ?Eval@RotateTransformer@@QAE?AVAngAxis@@PAVViewExp@@H@Z @556 ; ?Eval@RotateTransformer@@QAE?AVAngAxis@@PAVViewExp@@H@Z
    ?Eval@ScaleTransformer@@QAE?AVPoint3@@PAVViewExp@@H@Z @557 ; ?Eval@ScaleTransformer@@QAE?AVPoint3@@PAVViewExp@@H@Z
    ?Eval@SimpleObject@@UAE?AVObjectState@@H@Z @558 ; ?Eval@SimpleObject@@UAE?AVObjectState@@H@Z
    ?Eval@SimpleParticle@@UAE?AVObjectState@@H@Z @559 ; ?Eval@SimpleParticle@@UAE?AVObjectState@@H@Z
    ?Eval@SimpleShape@@UAE?AVObjectState@@H@Z @560 ; ?Eval@SimpleShape@@UAE?AVObjectState@@H@Z
    ?Eval@SimpleSpline@@UAE?AVObjectState@@H@Z @561 ; ?Eval@SimpleSpline@@UAE?AVObjectState@@H@Z
    ?Eval@SimpleWSMObject@@UAE?AVObjectState@@H@Z @562 ; ?Eval@SimpleWSMObject@@UAE?AVObjectState@@H@Z
    ?Eval@SplineShape@@UAE?AVObjectState@@H@Z @563 ; ?Eval@SplineShape@@UAE?AVObjectState@@H@Z
    ?Eval@TriObject@@UAE?AVObjectState@@H@Z @564 ; ?Eval@TriObject@@UAE?AVObjectState@@H@Z
    ?Eval@WSMDerivedObject@@QAE?AVObjectState@@HPAVMatrix3@@VInterval@@KPAVINode@@@Z @565 ; ?Eval@WSMDerivedObject@@QAE?AVObjectState@@HPAVMatrix3@@VInterval@@KPAVINode@@@Z
    ?EvalSubselState@ModApp@@UAEKH@Z @566 ; ?EvalSubselState@ModApp@@UAEKH@Z
    ?EvalUV@UVSourceDir@@QAE?AVPoint2@@AAVShadeContext@@H@Z @567 ; ?EvalUV@UVSourceDir@@QAE?AVPoint2@@AAVShadeContext@@H@Z
    ?Find@NumList@@QAEHH@Z         @568 ; ?Find@NumList@@QAEHH@Z
    ?FindAppDataChunk@@YAHPAXKPAD@Z @569 ; ?FindAppDataChunk@@YAHPAXKPAD@Z
    ?FindBaseObject@GenDerivedObject@@UAEPAVObject@@XZ @570 ; ?FindBaseObject@GenDerivedObject@@UAEPAVObject@@XZ
    ?FindChunk@AnimAppData@@QAEPAVAppDataChunk@@VClass_ID@@KK@Z @571 ; ?FindChunk@AnimAppData@@QAEPAVAppDataChunk@@VClass_ID@@KK@Z
    ?FindClass@ClassDirectory@@QAEPAVClassDesc@@KVClass_ID@@@Z @572 ; ?FindClass@ClassDirectory@@QAEPAVClassDesc@@KVClass_ID@@@Z
    ?FindClass@SubClassList@@QAEHPBD@Z @573 ; ?FindClass@SubClassList@@QAEHPBD@Z
    ?FindClass@SubClassList@@QAEHVClass_ID@@@Z @574 ; ?FindClass@SubClassList@@QAEHVClass_ID@@@Z
    ?FindClassEntry@ClassDirectory@@QAEPAVClassEntry@@KVClass_ID@@@Z @575 ; ?FindClassEntry@ClassDirectory@@QAEPAVClassEntry@@KVClass_ID@@@Z
    ?FindLevel@LoftObject@@QAEPAVCrossSection@@M@Z @576 ; ?FindLevel@LoftObject@@QAEPAVCrossSection@@M@Z
    ?FindLevelIndex@LoftObject@@QAEHM@Z @577 ; ?FindLevelIndex@LoftObject@@QAEHM@Z
    ?FindMtl@MtlBaseList@@QAEHPAVMtlBase@@@Z @578 ; ?FindMtl@MtlBaseList@@QAEHPAVMtlBase@@@Z
    ?FindMtl@MtlList@@QAEHPAVMtl@@@Z @579 ; ?FindMtl@MtlList@@QAEHPAVMtl@@@Z
    ?FindMtlByName@MtlBaseList@@QAEHAAVCStr@@@Z @580 ; ?FindMtlByName@MtlBaseList@@QAEHAAVCStr@@@Z
    ?FindMtlByName@MtlList@@QAEHAAVCStr@@@Z @581 ; ?FindMtlByName@MtlList@@QAEHAAVCStr@@@Z
    ?FindProperty@AnimPropertyList@@QAEHKH@Z @582 ; ?FindProperty@AnimPropertyList@@QAEHKH@Z
    ?FindRef@ReferenceMaker@@QAEHPAVReferenceTarget@@@Z @583 ; ?FindRef@ReferenceMaker@@QAEHPAVReferenceTarget@@@Z
    ?FindSegmentPoint@BezierShape@@QAEMHHPAVGraphicsWindow@@PAVMaterial@@PAVHitRegion@@@Z @584 ; ?FindSegmentPoint@BezierShape@@QAEMHHPAVGraphicsWindow@@PAVMaterial@@PAVHitRegion@@@Z
    ?FirstItem@RefList@@QAEPAVRefListItem@@XZ @585 ; ?FirstItem@RefList@@QAEPAVRefListItem@@XZ
    ?FixAdjBezTangents@Spline3D@@QAEXH@Z @586 ; ?FixAdjBezTangents@Spline3D@@QAEXH@Z
    ?FixUpVExtents@LoftObject@@QAEXHAAM0@Z @587 ; ?FixUpVExtents@LoftObject@@QAEXHAAM0@Z
    ?FlagKey@DefNoteTrack@@UAEXVTrackHitRecord@@@Z @588 ; ?FlagKey@DefNoteTrack@@UAEXVTrackHitRecord@@@Z
    ?FontExists@BezFontManager@@QAEHVCStr@@@Z @589 ; ?FontExists@BezFontManager@@QAEHVCStr@@@Z
    ?FormatUniverseValue@@YAPADM@Z @590 ; ?FormatUniverseValue@@YAPADM@Z
    ?Free@DllDesc@@QAEXXZ          @591 ; ?Free@DllDesc@@QAEXXZ
    ?FreeAll@LoftObject@@QAEXXZ    @592 ; ?FreeAll@LoftObject@@QAEXXZ
    ?FreeAll@MeshCapInfo@@QAEXXZ   @593 ; ?FreeAll@MeshCapInfo@@QAEXXZ
    ?FreeAll@PatchCapInfo@@QAEXXZ  @594 ; ?FreeAll@PatchCapInfo@@QAEXXZ
    ?FreeCaches@GenDerivedObject@@UAEXXZ @595 ; ?FreeCaches@GenDerivedObject@@UAEXXZ
    ?FreeCaches@SimpleObject@@UAEXXZ @596 ; ?FreeCaches@SimpleObject@@UAEXXZ
    ?FreeCaches@SimpleShape@@UAEXXZ @597 ; ?FreeCaches@SimpleShape@@UAEXXZ
    ?FreeCaches@SimpleSpline@@UAEXXZ @598 ; ?FreeCaches@SimpleSpline@@UAEXXZ
    ?FreeCaches@SimpleWSMObject@@UAEXXZ @599 ; ?FreeCaches@SimpleWSMObject@@UAEXXZ
    ?FreeChannels@BezierShape@@QAEXKH@Z @600 ; ?FreeChannels@BezierShape@@QAEXKH@Z
    ?FreeChannels@LinearShape@@UAEXK@Z @601 ; ?FreeChannels@LinearShape@@UAEXK@Z
    ?FreeChannels@NurbsObject@@UAEXK@Z @602 ; ?FreeChannels@NurbsObject@@UAEXK@Z
    ?FreeChannels@PatchObject@@UAEXK@Z @603 ; ?FreeChannels@PatchObject@@UAEXK@Z
    ?FreeChannels@PolyShape@@QAEXKH@Z @604 ; ?FreeChannels@PolyShape@@QAEXKH@Z
    ?FreeChannels@SplineShape@@UAEXK@Z @605 ; ?FreeChannels@SplineShape@@UAEXK@Z
    ?FreeChannels@TriObject@@UAEXK@Z @606 ; ?FreeChannels@TriObject@@UAEXK@Z
    ?Get3DSMAXVersion@@YAKXZ       @607 ; ?Get3DSMAXVersion@@YAKXZ
    ?GetAdaptive@PatchObject@@QAEHXZ @608 ; ?GetAdaptive@PatchObject@@QAEHXZ
    ?GetAdaptivePath@LoftObject@@QAEHXZ @609 ; ?GetAdaptivePath@LoftObject@@QAEHXZ
    ?GetAnimEnd@@YAHXZ             @610 ; ?GetAnimEnd@@YAHXZ
    ?GetAnimStart@@YAHXZ           @611 ; ?GetAnimStart@@YAHXZ
    ?GetAppDataChunk@@YAPAXPAXKPAD@Z @612 ; ?GetAppDataChunk@@YAPAXPAXKPAD@Z
    ?GetAppDataChunk@Animatable@@QAEPAVAppDataChunk@@VClass_ID@@KK@Z @613 ; ?GetAppDataChunk@Animatable@@QAEPAVAppDataChunk@@VClass_ID@@KK@Z
    ?GetAtmosphericStandinDescriptor@@YAPAVClassDesc@@XZ @614 ; ?GetAtmosphericStandinDescriptor@@YAPAVClassDesc@@XZ
    ?GetBBox@Spline3D@@QAEXHAAVMatrix3@@AAVBox3@@@Z @615 ; ?GetBBox@Spline3D@@QAEXHAAVMatrix3@@AAVBox3@@@Z
    ?GetBanking@LoftObject@@QAEHXZ @616 ; ?GetBanking@LoftObject@@QAEHXZ
    ?GetBevel@LoftObject@@QAEMHM@Z @617 ; ?GetBevel@LoftObject@@QAEMHM@Z
    ?GetBoundingBox@BezierShape@@QAE?AVBox3@@PAVMatrix3@@@Z @618 ; ?GetBoundingBox@BezierShape@@QAE?AVBox3@@PAVMatrix3@@@Z
    ?GetBoundingBox@LoftObject@@QAE?AVBox3@@HPAVMatrix3@@@Z @619 ; ?GetBoundingBox@LoftObject@@QAE?AVBox3@@HPAVMatrix3@@@Z
    ?GetBoundingBox@PolyLine@@QAE?AVBox3@@PAVMatrix3@@@Z @620 ; ?GetBoundingBox@PolyLine@@QAE?AVBox3@@PAVMatrix3@@@Z
    ?GetBoundingBox@PolyShape@@QAE?AVBox3@@PAVMatrix3@@@Z @621 ; ?GetBoundingBox@PolyShape@@QAE?AVBox3@@PAVMatrix3@@@Z
    ?GetBox@DummyObject@@QBE?AVBox3@@XZ @622 ; ?GetBox@DummyObject@@QBE?AVBox3@@XZ
    ?GetBranchINode@LoftObject@@UAEPAVINode@@HPAV2@H@Z @623 ; ?GetBranchINode@LoftObject@@UAEPAVINode@@HPAV2@H@Z
    ?GetBytes@TempStore@@QAEXHPAX0@Z @624 ; ?GetBytes@TempStore@@QAEXHPAX0@Z
    ?GetCOREInterface@@YAPAVInterface@@XZ @625 ; ?GetCOREInterface@@YAPAVInterface@@XZ
    ?GetCPInitPos@@YA?AVIPoint2@@XZ @626 ; ?GetCPInitPos@@YA?AVIPoint2@@XZ
    ?GetCameraStandinDescriptor@@YAPAVClassDesc@@XZ @627 ; ?GetCameraStandinDescriptor@@YAPAVClassDesc@@XZ
    ?GetCapEnd@LoftObject@@QAEHXZ  @628 ; ?GetCapEnd@LoftObject@@QAEHXZ
    ?GetCapStart@LoftObject@@QAEHXZ @629 ; ?GetCapStart@LoftObject@@QAEHXZ
    ?GetCapType@LoftObject@@QAEHXZ @630 ; ?GetCapType@LoftObject@@QAEHXZ
    ?GetCheckBox@@YAHPAUHWND__@@H@Z @631 ; ?GetCheckBox@@YAHPAUHWND__@@H@Z
    ?GetClassList@ClassDirectory@@QAEPAVSubClassList@@K@Z @632 ; ?GetClassList@ClassDirectory@@QAEPAVSubClassList@@K@Z
    ?GetClientRectP@@YAXPAUHWND__@@PAVBox2@@@Z @633 ; ?GetClientRectP@@YAXPAUHWND__@@PAVBox2@@@Z
    ?GetClosures@BezierShape@@QAEXAAVBitArray@@@Z @634 ; ?GetClosures@BezierShape@@QAEXAAVBitArray@@@Z
    ?GetContainedShape@LoftObject@@UAEPAVShapeObject@@HH@Z @635 ; ?GetContainedShape@LoftObject@@UAEPAVShapeObject@@HH@Z
    ?GetContainedShapeMatrix@LoftObject@@UAEXHHAAVMatrix3@@@Z @636 ; ?GetContainedShapeMatrix@LoftObject@@UAEXHHAAVMatrix3@@@Z
    ?GetContour@LoftObject@@QAEHXZ @637 ; ?GetContour@LoftObject@@QAEHXZ
    ?GetCreateMouseCallBack@DummyObject@@UAEPAVCreateMouseCallBack@@XZ @638 ; ?GetCreateMouseCallBack@DummyObject@@UAEPAVCreateMouseCallBack@@XZ
    ?GetCreateMouseCallBack@LinearShape@@UAEPAVCreateMouseCallBack@@XZ @639 ; ?GetCreateMouseCallBack@LinearShape@@UAEPAVCreateMouseCallBack@@XZ
    ?GetCreateMouseCallBack@LoftObject@@UAEPAVCreateMouseCallBack@@XZ @640 ; ?GetCreateMouseCallBack@LoftObject@@UAEPAVCreateMouseCallBack@@XZ
    ?GetCreateMouseCallBack@NurbsObject@@UAEPAVCreateMouseCallBack@@XZ @641 ; ?GetCreateMouseCallBack@NurbsObject@@UAEPAVCreateMouseCallBack@@XZ
    ?GetCreateMouseCallBack@PatchObject@@UAEPAVCreateMouseCallBack@@XZ @642 ; ?GetCreateMouseCallBack@PatchObject@@UAEPAVCreateMouseCallBack@@XZ
    ?GetCreateMouseCallBack@SplineShape@@UAEPAVCreateMouseCallBack@@XZ @643 ; ?GetCreateMouseCallBack@SplineShape@@UAEPAVCreateMouseCallBack@@XZ
    ?GetCreateMouseCallBack@TriObject@@UAEPAVCreateMouseCallBack@@XZ @644 ; ?GetCreateMouseCallBack@TriObject@@UAEPAVCreateMouseCallBack@@XZ
    ?GetCurObjectCount@@YAHXZ      @645 ; ?GetCurObjectCount@@YAHXZ
    ?GetDKGrayBrush@@YAPAUHBRUSH__@@XZ @646 ; ?GetDKGrayBrush@@YAPAUHBRUSH__@@XZ
    ?GetDefaultController@@YAPAVClassDesc@@K@Z @647 ; ?GetDefaultController@@YAPAVClassDesc@@K@Z
    ?GetDeformBBox@BezierShape@@QAEXHAAVBox3@@PAVMatrix3@@H@Z @648 ; ?GetDeformBBox@BezierShape@@QAEXHAAVBox3@@PAVMatrix3@@H@Z
    ?GetDeformBBox@DummyObject@@UAEXHAAVBox3@@PAVMatrix3@@H@Z @649 ; ?GetDeformBBox@DummyObject@@UAEXHAAVBox3@@PAVMatrix3@@H@Z
    ?GetDeformBBox@LinearShape@@UAEXHAAVBox3@@PAVMatrix3@@H@Z @650 ; ?GetDeformBBox@LinearShape@@UAEXHAAVBox3@@PAVMatrix3@@H@Z
    ?GetDeformBBox@LoftObject@@UAEXHAAVBox3@@PAVMatrix3@@H@Z @651 ; ?GetDeformBBox@LoftObject@@UAEXHAAVBox3@@PAVMatrix3@@H@Z
    ?GetDeformBBox@NurbsObject@@UAEXHAAVBox3@@PAVMatrix3@@H@Z @652 ; ?GetDeformBBox@NurbsObject@@UAEXHAAVBox3@@PAVMatrix3@@H@Z
    ?GetDeformBBox@Object@@UAEXHAAVBox3@@PAVMatrix3@@H@Z @653 ; ?GetDeformBBox@Object@@UAEXHAAVBox3@@PAVMatrix3@@H@Z
    ?GetDeformBBox@PatchObject@@UAEXHAAVBox3@@PAVMatrix3@@H@Z @654 ; ?GetDeformBBox@PatchObject@@UAEXHAAVBox3@@PAVMatrix3@@H@Z
    ?GetDeformBBox@PolyShape@@QAEXHAAVBox3@@PAVMatrix3@@H@Z @655 ; ?GetDeformBBox@PolyShape@@QAEXHAAVBox3@@PAVMatrix3@@H@Z
    ?GetDeformBBox@SimpleObject@@UAEXHAAVBox3@@PAVMatrix3@@H@Z @656 ; ?GetDeformBBox@SimpleObject@@UAEXHAAVBox3@@PAVMatrix3@@H@Z
    ?GetDeformBBox@SimpleParticle@@UAEXHAAVBox3@@PAVMatrix3@@H@Z @657 ; ?GetDeformBBox@SimpleParticle@@UAEXHAAVBox3@@PAVMatrix3@@H@Z
    ?GetDeformBBox@SimpleShape@@UAEXHAAVBox3@@PAVMatrix3@@H@Z @658 ; ?GetDeformBBox@SimpleShape@@UAEXHAAVBox3@@PAVMatrix3@@H@Z
    ?GetDeformBBox@SimpleSpline@@UAEXHAAVBox3@@PAVMatrix3@@H@Z @659 ; ?GetDeformBBox@SimpleSpline@@UAEXHAAVBox3@@PAVMatrix3@@H@Z
    ?GetDeformBBox@SimpleWSMObject@@UAEXHAAVBox3@@PAVMatrix3@@H@Z @660 ; ?GetDeformBBox@SimpleWSMObject@@UAEXHAAVBox3@@PAVMatrix3@@H@Z
    ?GetDeformBBox@SplineShape@@UAEXHAAVBox3@@PAVMatrix3@@H@Z @661 ; ?GetDeformBBox@SplineShape@@UAEXHAAVBox3@@PAVMatrix3@@H@Z
    ?GetDeformBBox@TriObject@@UAEXHAAVBox3@@PAVMatrix3@@H@Z @662 ; ?GetDeformBBox@TriObject@@UAEXHAAVBox3@@PAVMatrix3@@H@Z
    ?GetDeformCurve@LoftObject@@QAEAAVDeformCurve@@HH@Z @663 ; ?GetDeformCurve@LoftObject@@QAEAAVDeformCurve@@HH@Z
    ?GetDispFlag@BezierShape@@QAEKK@Z @664 ; ?GetDispFlag@BezierShape@@QAEKK@Z
    ?GetDlgItemFloat@@YAMPAUHWND__@@H@Z @665 ; ?GetDlgItemFloat@@YAMPAUHWND__@@H@Z
    ?GetDragMode@MouseManager@@QAEHXZ @666 ; ?GetDragMode@MouseManager@@QAEHXZ
    ?GetDragVector@Spline3D@@QAE?AVPoint3@@PAVViewExp@@VIPoint2@@HPAVMatrix3@@@Z @667 ; ?GetDragVector@Spline3D@@QAE?AVPoint3@@PAVViewExp@@VIPoint2@@HPAVMatrix3@@@Z
    ?GetDummyObjDescriptor@@YAPAVClassDesc@@XZ @668 ; ?GetDummyObjDescriptor@@YAPAVClassDesc@@XZ
    ?GetEditTriObjDesc@@YAPAVClassDesc@@XZ @669 ; ?GetEditTriObjDesc@@YAPAVClassDesc@@XZ
    ?GetFCurveExtents@Control@@UAEHPAVParamDimensionBase@@AAM1K@Z @670 ; ?GetFCurveExtents@Control@@UAEHPAVParamDimensionBase@@AAM1K@Z
    ?GetFirst@SubClassList@@QAEHH@Z @671 ; ?GetFirst@SubClassList@@QAEHH@Z
    ?GetFirstFraction@@YAPADXZ     @672 ; ?GetFirstFraction@@YAPADXZ
    ?GetFirstMetricDisp@@YAPADXZ   @673 ; ?GetFirstMetricDisp@@YAPADXZ
    ?GetFirstUSDisp@@YAPADXZ       @674 ; ?GetFirstUSDisp@@YAPADXZ
    ?GetFirstUnitName@@YAPADXZ     @675 ; ?GetFirstUnitName@@YAPADXZ
    ?GetFitSize@LoftObject@@QAEMXZ @676 ; ?GetFitSize@LoftObject@@QAEMXZ
    ?GetFixedFont@@YAPAUHFONT__@@XZ @677 ; ?GetFixedFont@@YAPAUHFONT__@@XZ
    ?GetFlagKeyIndex@DefNoteTrack@@UAEHXZ @678 ; ?GetFlagKeyIndex@DefNoteTrack@@UAEHXZ
    ?GetFloat@TempStore@@QAEXPAMPAX@Z @679 ; ?GetFloat@TempStore@@QAEXPAMPAX@Z
    ?GetFloatControlStandinDescriptor@@YAPAVClassDesc@@XZ @680 ; ?GetFloatControlStandinDescriptor@@YAPAVClassDesc@@XZ
    ?GetFontInfo@BezFontManager@@QAEHVCStr@@AAVBezFontInfo@@@Z @681 ; ?GetFontInfo@BezFontManager@@QAEHVCStr@@AAVBezFontInfo@@@Z
    ?GetFrameRate@@YAHXZ           @682 ; ?GetFrameRate@@YAHXZ
    ?GetFullName@MtlBase@@UAE?AVCStr@@XZ @683 ; ?GetFullName@MtlBase@@UAE?AVCStr@@XZ
    ?GetGPort@@YAPAVGPort@@XZ      @684 ; ?GetGPort@@YAPAVGPort@@XZ
    ?GetGeomStandinDescriptor@@YAPAVClassDesc@@XZ @685 ; ?GetGeomStandinDescriptor@@YAPAVClassDesc@@XZ
    ?GetHelperStandinDescriptor@@YAPAVClassDesc@@XZ @686 ; ?GetHelperStandinDescriptor@@YAPAVClassDesc@@XZ
    ?GetIColorSwatch@@YAPAVIColorSwatch@@PAUHWND__@@KPAD@Z @687 ; ?GetIColorSwatch@@YAPAVIColorSwatch@@PAUHWND__@@KPAD@Z
    ?GetICustButton@@YAPAVICustButton@@PAUHWND__@@@Z @688 ; ?GetICustButton@@YAPAVICustButton@@PAUHWND__@@@Z
    ?GetICustEdit@@YAPAVICustEdit@@PAUHWND__@@@Z @689 ; ?GetICustEdit@@YAPAVICustEdit@@PAUHWND__@@@Z
    ?GetICustImage@@YAPAVICustImage@@PAUHWND__@@@Z @690 ; ?GetICustImage@@YAPAVICustImage@@PAUHWND__@@@Z
    ?GetICustStatus@@YAPAVICustStatus@@PAUHWND__@@@Z @691 ; ?GetICustStatus@@YAPAVICustStatus@@PAUHWND__@@@Z
    ?GetICustToolbar@@YAPAVICustToolbar@@PAUHWND__@@@Z @692 ; ?GetICustToolbar@@YAPAVICustToolbar@@PAUHWND__@@@Z
    ?GetID@UVSourceDir@@QAEKH@Z    @693 ; ?GetID@UVSourceDir@@QAEKH@Z
    ?GetIDStr@@YAXPAD0@Z           @694 ; ?GetIDStr@@YAXPAD0@Z
    ?GetIRollup@@YAPAVIRollupWindow@@PAUHWND__@@@Z @695 ; ?GetIRollup@@YAPAVIRollupWindow@@PAUHWND__@@@Z
    ?GetISpinner@@YAPAVISpinnerControl@@PAUHWND__@@@Z @696 ; ?GetISpinner@@YAPAVISpinnerControl@@PAUHWND__@@@Z
    ?GetIndex@CrossSection@@QAEHXZ @697 ; ?GetIndex@CrossSection@@QAEHXZ
    ?GetInt@TempStore@@QAEXPAHPAX@Z @698 ; ?GetInt@TempStore@@QAEXPAHPAX@Z
    ?GetInterface@BaseObject@@UAEPAXK@Z @699 ; ?GetInterface@BaseObject@@UAEPAXK@Z
    ?GetInterface@BezFontManager@@QAEPAVFontMgrInterface@@XZ @700 ; ?GetInterface@BezFontManager@@QAEPAVFontMgrInterface@@XZ
    ?GetInterface@Control@@UAEPAXK@Z @701 ; ?GetInterface@Control@@UAEPAXK@Z
    ?GetInterface@EaseCurveList@@UAEPAXK@Z @702 ; ?GetInterface@EaseCurveList@@UAEPAXK@Z
    ?GetInterface@MultCurveList@@UAEPAXK@Z @703 ; ?GetInterface@MultCurveList@@UAEPAXK@Z
    ?GetInterface@SimpleParticle@@UAEPAXK@Z @704 ; ?GetInterface@SimpleParticle@@UAEPAXK@Z
    ?GetInverse@LoftObject@@QAEHXZ @705 ; ?GetInverse@LoftObject@@QAEHXZ
    ?GetLTGrayBrush@@YAPAUHBRUSH__@@XZ @706 ; ?GetLTGrayBrush@@YAPAUHBRUSH__@@XZ
    ?GetLevel@LoftObject@@QAEMXZ   @707 ; ?GetLevel@LoftObject@@QAEMXZ
    ?GetLightStandinDescriptor@@YAPAVClassDesc@@XZ @708 ; ?GetLightStandinDescriptor@@YAPAVClassDesc@@XZ
    ?GetLinearInterpolation@LoftObject@@QAEHXZ @709 ; ?GetLinearInterpolation@LoftObject@@QAEHXZ
    ?GetLinearShapeDescriptor@@YAPAVClassDesc@@XZ @710 ; ?GetLinearShapeDescriptor@@YAPAVClassDesc@@XZ
    ?GetListHieght@@YAHPAUHWND__@@@Z @711 ; ?GetListHieght@@YAHPAUHWND__@@@Z
    ?GetLocalBoundBox@DummyObject@@UAEXHPAVINode@@PAVViewExp@@AAVBox3@@@Z @712 ; ?GetLocalBoundBox@DummyObject@@UAEXHPAVINode@@PAVViewExp@@AAVBox3@@@Z
    ?GetLocalBoundBox@LinearShape@@UAEXHPAVINode@@PAVViewExp@@AAVBox3@@@Z @713 ; ?GetLocalBoundBox@LinearShape@@UAEXHPAVINode@@PAVViewExp@@AAVBox3@@@Z
    ?GetLocalBoundBox@LoftObject@@UAEXHPAVINode@@PAVViewExp@@AAVBox3@@@Z @714 ; ?GetLocalBoundBox@LoftObject@@UAEXHPAVINode@@PAVViewExp@@AAVBox3@@@Z
    ?GetLocalBoundBox@NurbsObject@@UAEXHPAVINode@@PAVViewExp@@AAVBox3@@@Z @715 ; ?GetLocalBoundBox@NurbsObject@@UAEXHPAVINode@@PAVViewExp@@AAVBox3@@@Z
    ?GetLocalBoundBox@PatchObject@@UAEXHPAVINode@@PAVViewExp@@AAVBox3@@@Z @716 ; ?GetLocalBoundBox@PatchObject@@UAEXHPAVINode@@PAVViewExp@@AAVBox3@@@Z
    ?GetLocalBoundBox@SimpleObject@@UAEXHPAVINode@@PAVViewExp@@AAVBox3@@@Z @717 ; ?GetLocalBoundBox@SimpleObject@@UAEXHPAVINode@@PAVViewExp@@AAVBox3@@@Z
    ?GetLocalBoundBox@SimpleParticle@@UAEXHPAVINode@@PAVViewExp@@AAVBox3@@@Z @718 ; ?GetLocalBoundBox@SimpleParticle@@UAEXHPAVINode@@PAVViewExp@@AAVBox3@@@Z
    ?GetLocalBoundBox@SimpleShape@@UAEXHPAVINode@@PAVViewExp@@AAVBox3@@@Z @719 ; ?GetLocalBoundBox@SimpleShape@@UAEXHPAVINode@@PAVViewExp@@AAVBox3@@@Z
    ?GetLocalBoundBox@SimpleSpline@@UAEXHPAVINode@@PAVViewExp@@AAVBox3@@@Z @720 ; ?GetLocalBoundBox@SimpleSpline@@UAEXHPAVINode@@PAVViewExp@@AAVBox3@@@Z
    ?GetLocalBoundBox@SimpleWSMObject@@UAEXHPAVINode@@PAVViewExp@@AAVBox3@@@Z @721 ; ?GetLocalBoundBox@SimpleWSMObject@@UAEXHPAVINode@@PAVViewExp@@AAVBox3@@@Z
    ?GetLocalBoundBox@SplineShape@@UAEXHPAVINode@@PAVViewExp@@AAVBox3@@@Z @722 ; ?GetLocalBoundBox@SplineShape@@UAEXHPAVINode@@PAVViewExp@@AAVBox3@@@Z
    ?GetLocalBoundBox@TriObject@@UAEXHPAVINode@@PAVViewExp@@AAVBox3@@@Z @723 ; ?GetLocalBoundBox@TriObject@@UAEXHPAVINode@@PAVViewExp@@AAVBox3@@@Z
    ?GetLocalMatrix@LoftShape@@QAE?AVMatrix3@@H@Z @724 ; ?GetLocalMatrix@LoftShape@@QAE?AVMatrix3@@H@Z
    ?GetLockFailureLevel@@YAHXZ    @725 ; ?GetLockFailureLevel@@YAHXZ
    ?GetLoftDeformCurveDescriptor@@YAPAVClassDesc@@XZ @726 ; ?GetLoftDeformCurveDescriptor@@YAPAVClassDesc@@XZ
    ?GetLoftObjDescriptor@@YAPAVClassDesc@@XZ @727 ; ?GetLoftObjDescriptor@@YAPAVClassDesc@@XZ
    ?GetMapLengthRepeat@LoftObject@@QAEMXZ @728 ; ?GetMapLengthRepeat@LoftObject@@QAEMXZ
    ?GetMapPerimeterRepeat@LoftObject@@QAEMXZ @729 ; ?GetMapPerimeterRepeat@LoftObject@@QAEMXZ
    ?GetMapping@LoftObject@@QAEHXZ @730 ; ?GetMapping@LoftObject@@QAEHXZ
    ?GetMasterScale@@YANH@Z        @731 ; ?GetMasterScale@@YANH@Z
    ?GetMasterUnitInfo@@YAXPAHPAM@Z @732 ; ?GetMasterUnitInfo@@YAXPAHPAM@Z
    ?GetMatrix3ControlStandinDescriptor@@YAPAVClassDesc@@XZ @733 ; ?GetMatrix3ControlStandinDescriptor@@YAPAVClassDesc@@XZ
    ?GetMeshSteps@PatchObject@@QAEHXZ @734 ; ?GetMeshSteps@PatchObject@@QAEHXZ
    ?GetModApp@GenDerivedObject@@QAEPAVModApp@@H@Z @735 ; ?GetModApp@GenDerivedObject@@QAEPAVModApp@@H@Z
    ?GetModContext@GenDerivedObject@@UAEPAVModContext@@H@Z @736 ; ?GetModContext@GenDerivedObject@@UAEPAVModContext@@H@Z
    ?GetModifier@GenDerivedObject@@UAEPAVModifier@@H@Z @737 ; ?GetModifier@GenDerivedObject@@UAEPAVModifier@@H@Z
    ?GetMorphControlStandinDescriptor@@YAPAVClassDesc@@XZ @738 ; ?GetMorphControlStandinDescriptor@@YAPAVClassDesc@@XZ
    ?GetMoveModeType@@YAHXZ        @739 ; ?GetMoveModeType@@YAHXZ
    ?GetMtlBaseLibCD@@YAPAVClassDesc@@XZ @740 ; ?GetMtlBaseLibCD@@YAPAVClassDesc@@XZ
    ?GetMtlLibCD@@YAPAVClassDesc@@XZ @741 ; ?GetMtlLibCD@@YAPAVClassDesc@@XZ
    ?GetMtlStandinDescriptor@@YAPAVClassDesc@@XZ @742 ; ?GetMtlStandinDescriptor@@YAPAVClassDesc@@XZ
    ?GetMultVal@Control@@QAEMHAAVInterval@@@Z @743 ; ?GetMultVal@Control@@QAEMHAAVInterval@@@Z
    ?GetMultVal@MultCurveList@@QAEMHAAVInterval@@@Z @744 ; ?GetMultVal@MultCurveList@@QAEMHAAVInterval@@@Z
    ?GetName@Modifier@@UAE?AVCStr@@XZ @745 ; ?GetName@Modifier@@UAE?AVCStr@@XZ
    ?GetName@UVSourceDir@@QAE?AVCStr@@H@Z @746 ; ?GetName@UVSourceDir@@QAE?AVCStr@@H@Z
    ?GetNewDefaultTextureOutput@@YAPAVTextureOutput@@XZ @747 ; ?GetNewDefaultTextureOutput@@YAPAVTextureOutput@@XZ
    ?GetNewDefaultUVGen@@YAPAVUVGen@@XZ @748 ; ?GetNewDefaultUVGen@@YAPAVUVGen@@XZ
    ?GetNewDefaultXYZGen@@YAPAVXYZGen@@XZ @749 ; ?GetNewDefaultXYZGen@@YAPAVXYZGen@@XZ
    ?GetNext@SubClassList@@QAEHH@Z @750 ; ?GetNext@SubClassList@@QAEHH@Z
    ?GetNextFraction@@YAPADXZ      @751 ; ?GetNextFraction@@YAPADXZ
    ?GetNextMetricDisp@@YAPADXZ    @752 ; ?GetNextMetricDisp@@YAPADXZ
    ?GetNextUSDisp@@YAPADXZ        @753 ; ?GetNextUSDisp@@YAPADXZ
    ?GetNextUnitName@@YAPADXZ      @754 ; ?GetNextUnitName@@YAPADXZ
    ?GetNormalize@LoftObject@@QAEHXZ @755 ; ?GetNormalize@LoftObject@@QAEHXZ
    ?GetNoteTrack@Animatable@@QAEPAVNoteTrack@@H@Z @756 ; ?GetNoteTrack@Animatable@@QAEPAVNoteTrack@@H@Z
    ?GetNumSegs@BezierShape@@QAEHXZ @757 ; ?GetNumSegs@BezierShape@@QAEHXZ
    ?GetNumVerts@BezierShape@@QAEHXZ @758 ; ?GetNumVerts@BezierShape@@QAEHXZ
    ?GetNurbsObjDescriptor@@YAPAVClassDesc@@XZ @759 ; ?GetNurbsObjDescriptor@@YAPAVClassDesc@@XZ
    ?GetOSMStandinDescriptor@@YAPAVClassDesc@@XZ @760 ; ?GetOSMStandinDescriptor@@YAPAVClassDesc@@XZ
    ?GetObjOffsetScale@INodeTransformed@@UAE?AVScaleValue@@XZ @761 ; ?GetObjOffsetScale@INodeTransformed@@UAE?AVScaleValue@@XZ
    ?GetOptimizeShapes@LoftObject@@QAEHXZ @762 ; ?GetOptimizeShapes@LoftObject@@QAEHXZ
    ?GetOrientInfo@LoftObject@@QAEAAVOrientInfo@@H@Z @763 ; ?GetOrientInfo@LoftObject@@QAEAAVOrientInfo@@H@Z
    ?GetPSteps@LoftObject@@QAEHXZ  @764 ; ?GetPSteps@LoftObject@@QAEHXZ
    ?GetPanCursor@@YAPAUHICON__@@XZ @765 ; ?GetPanCursor@@YAPAUHICON__@@XZ
    ?GetParam@Spline3D@@QAEMH@Z    @766 ; ?GetParam@Spline3D@@QAEMH@Z
    ?GetParamBlock@SimpleMod@@UAEPAVIParamArray@@XZ @767 ; ?GetParamBlock@SimpleMod@@UAEPAVIParamArray@@XZ
    ?GetParamBlock@SimpleObject@@UAEPAVIParamArray@@XZ @768 ; ?GetParamBlock@SimpleObject@@UAEPAVIParamArray@@XZ
    ?GetParamBlock@SimpleParticle@@UAEPAVIParamArray@@XZ @769 ; ?GetParamBlock@SimpleParticle@@UAEPAVIParamArray@@XZ
    ?GetParamBlock@SimpleWSMMod@@UAEPAVIParamArray@@XZ @770 ; ?GetParamBlock@SimpleWSMMod@@UAEPAVIParamArray@@XZ
    ?GetParamBlock@SimpleWSMObject@@UAEPAVIParamArray@@XZ @771 ; ?GetParamBlock@SimpleWSMObject@@UAEPAVIParamArray@@XZ
    ?GetParamBlockIndex@SimpleMod@@UAEHH@Z @772 ; ?GetParamBlockIndex@SimpleMod@@UAEHH@Z
    ?GetParamBlockIndex@SimpleObject@@UAEHH@Z @773 ; ?GetParamBlockIndex@SimpleObject@@UAEHH@Z
    ?GetParamBlockIndex@SimpleParticle@@UAEHH@Z @774 ; ?GetParamBlockIndex@SimpleParticle@@UAEHH@Z
    ?GetParamBlockIndex@SimpleShape@@UAEHH@Z @775 ; ?GetParamBlockIndex@SimpleShape@@UAEHH@Z
    ?GetParamBlockIndex@SimpleSpline@@UAEHH@Z @776 ; ?GetParamBlockIndex@SimpleSpline@@UAEHH@Z
    ?GetParamBlockIndex@SimpleWSMMod@@UAEHH@Z @777 ; ?GetParamBlockIndex@SimpleWSMMod@@UAEHH@Z
    ?GetParamBlockIndex@SimpleWSMObject@@UAEHH@Z @778 ; ?GetParamBlockIndex@SimpleWSMObject@@UAEHH@Z
    ?GetParamDimension@LoftObject@@UAEPAVParamDimension@@H@Z @779 ; ?GetParamDimension@LoftObject@@UAEPAVParamDimension@@H@Z
    ?GetParameterDim@SimpleShape@@UAEPAVParamDimension@@H@Z @780 ; ?GetParameterDim@SimpleShape@@UAEPAVParamDimension@@H@Z
    ?GetParameterDim@SimpleSpline@@UAEPAVParamDimension@@H@Z @781 ; ?GetParameterDim@SimpleSpline@@UAEPAVParamDimension@@H@Z
    ?GetParameterName@SimpleShape@@UAE?AVCStr@@H@Z @782 ; ?GetParameterName@SimpleShape@@UAE?AVCStr@@H@Z
    ?GetParameterName@SimpleSpline@@UAE?AVCStr@@H@Z @783 ; ?GetParameterName@SimpleSpline@@UAE?AVCStr@@H@Z
    ?GetPatchObjDescriptor@@YAPAVClassDesc@@XZ @784 ; ?GetPatchObjDescriptor@@YAPAVClassDesc@@XZ
    ?GetPathModMatrix@LoftObject@@QAEAAVMatrix3@@XZ @785 ; ?GetPathModMatrix@LoftObject@@QAEAAVMatrix3@@XZ
    ?GetPathRef@LoftObject@@QAEHXZ @786 ; ?GetPathRef@LoftObject@@QAEHXZ
    ?GetPerspMouseSpeed@@YAMXZ     @787 ; ?GetPerspMouseSpeed@@YAMXZ
    ?GetPiecePct@LoftShape@@QAEMHHH@Z @788 ; ?GetPiecePct@LoftShape@@QAEMHHH@Z
    ?GetPipeBranch@LoftObject@@UAEPAVObject@@H@Z @789 ; ?GetPipeBranch@LoftObject@@UAEPAVObject@@H@Z
    ?GetPoint3@TempStore@@QAEXPAVPoint3@@PAX@Z @790 ; ?GetPoint3@TempStore@@QAEXPAVPoint3@@PAX@Z
    ?GetPoint3ControlStandinDescriptor@@YAPAVClassDesc@@XZ @791 ; ?GetPoint3ControlStandinDescriptor@@YAPAVClassDesc@@XZ
    ?GetPoint@LinearShape@@UAE?AVPoint3@@H@Z @792 ; ?GetPoint@LinearShape@@UAE?AVPoint3@@H@Z
    ?GetPoint@PatchObject@@UAE?AVPoint3@@H@Z @793 ; ?GetPoint@PatchObject@@UAE?AVPoint3@@H@Z
    ?GetPoint@SplineShape@@UAE?AVPoint3@@H@Z @794 ; ?GetPoint@SplineShape@@UAE?AVPoint3@@H@Z
    ?GetPositionControlStandinDescriptor@@YAPAVClassDesc@@XZ @795 ; ?GetPositionControlStandinDescriptor@@YAPAVClassDesc@@XZ
    ?GetQuat@TempStore@@QAEXPAVQuat@@PAX@Z @796 ; ?GetQuat@TempStore@@QAEXPAVQuat@@PAX@Z
    ?GetRefMakerStandinDescriptor@@YAPAVClassDesc@@XZ @797 ; ?GetRefMakerStandinDescriptor@@YAPAVClassDesc@@XZ
    ?GetRefTargetStandinDescriptor@@YAPAVClassDesc@@XZ @798 ; ?GetRefTargetStandinDescriptor@@YAPAVClassDesc@@XZ
    ?GetReference@Control@@UAEPAVReferenceTarget@@H@Z @799 ; ?GetReference@Control@@UAEPAVReferenceTarget@@H@Z
    ?GetReference@EaseCurveList@@UAEPAVReferenceTarget@@H@Z @800 ; ?GetReference@EaseCurveList@@UAEPAVReferenceTarget@@H@Z
    ?GetReference@LoftObject@@UAEPAVReferenceTarget@@H@Z @801 ; ?GetReference@LoftObject@@UAEPAVReferenceTarget@@H@Z
    ?GetReference@ModApp@@UAEPAVReferenceTarget@@H@Z @802 ; ?GetReference@ModApp@@UAEPAVReferenceTarget@@H@Z
    ?GetReference@MultCurveList@@UAEPAVReferenceTarget@@H@Z @803 ; ?GetReference@MultCurveList@@UAEPAVReferenceTarget@@H@Z
    ?GetReference@ReferenceMaker@@UAEPAVReferenceTarget@@H@Z @804 ; ?GetReference@ReferenceMaker@@UAEPAVReferenceTarget@@H@Z
    ?GetReference@SimpleMod@@UAEPAVReferenceTarget@@H@Z @805 ; ?GetReference@SimpleMod@@UAEPAVReferenceTarget@@H@Z
    ?GetReference@SimpleSpline@@UAEPAVReferenceTarget@@H@Z @806 ; ?GetReference@SimpleSpline@@UAEPAVReferenceTarget@@H@Z
    ?GetReference@SimpleWSMMod@@UAEPAVReferenceTarget@@H@Z @807 ; ?GetReference@SimpleWSMMod@@UAEPAVReferenceTarget@@H@Z
    ?GetRenderMesh@GeomObject@@UAEPAVMesh@@HPAVINode@@AAVView@@AAH@Z @808 ; ?GetRenderMesh@GeomObject@@UAEPAVMesh@@HPAVINode@@AAVView@@AAH@Z
    ?GetRenderMesh@LoftObject@@UAEPAVMesh@@HPAVINode@@AAVView@@AAH@Z @809 ; ?GetRenderMesh@LoftObject@@UAEPAVMesh@@HPAVINode@@AAVView@@AAH@Z
    ?GetRenderMesh@NurbsObject@@UAEPAVMesh@@HPAVINode@@AAVView@@AAH@Z @810 ; ?GetRenderMesh@NurbsObject@@UAEPAVMesh@@HPAVINode@@AAVView@@AAH@Z
    ?GetRenderMesh@PatchObject@@UAEPAVMesh@@HPAVINode@@AAVView@@AAH@Z @811 ; ?GetRenderMesh@PatchObject@@UAEPAVMesh@@HPAVINode@@AAVView@@AAH@Z
    ?GetRenderMesh@SimpleObject@@UAEPAVMesh@@HPAVINode@@AAVView@@AAH@Z @812 ; ?GetRenderMesh@SimpleObject@@UAEPAVMesh@@HPAVINode@@AAVView@@AAH@Z
    ?GetRenderMesh@TriObject@@UAEPAVMesh@@HPAVINode@@AAVView@@AAH@Z @813 ; ?GetRenderMesh@TriObject@@UAEPAVMesh@@HPAVINode@@AAVView@@AAH@Z
    ?GetRenderNurbsMesh@GeomObject@@UAEPAVNurbsMesh@@HPAVINode@@AAVView@@AAH@Z @814 ; ?GetRenderNurbsMesh@GeomObject@@UAEPAVNurbsMesh@@HPAVINode@@AAVView@@AAH@Z
    ?GetRenderPatchMesh@GeomObject@@UAEPAVPatchMesh@@HPAVINode@@AAVView@@AAH@Z @815 ; ?GetRenderPatchMesh@GeomObject@@UAEPAVPatchMesh@@HPAVINode@@AAVView@@AAH@Z
    ?GetRendererStandinDescriptor@@YAPAVClassDesc@@XZ @816 ; ?GetRendererStandinDescriptor@@YAPAVClassDesc@@XZ
    ?GetRotationControlStandinDescriptor@@YAPAVClassDesc@@XZ @817 ; ?GetRotationControlStandinDescriptor@@YAPAVClassDesc@@XZ
    ?GetSSteps@LoftObject@@QAEHXZ  @818 ; ?GetSSteps@LoftObject@@QAEHXZ
    ?GetSXPReaderClass@@YAPAVTex3D@@PAD@Z @819 ; ?GetSXPReaderClass@@YAPAVTex3D@@PAD@Z
    ?GetSaveRequired@@YAHXZ        @820 ; ?GetSaveRequired@@YAHXZ
    ?GetScaleControlStandinDescriptor@@YAPAVClassDesc@@XZ @821 ; ?GetScaleControlStandinDescriptor@@YAPAVClassDesc@@XZ
    ?GetScaleValue@TempStore@@QAEXPAVScaleValue@@PAX@Z @822 ; ?GetScaleValue@TempStore@@QAEXPAVScaleValue@@PAX@Z
    ?GetSection@LoftObject@@QAEPAVCrossSection@@H@Z @823 ; ?GetSection@LoftObject@@QAEPAVCrossSection@@H@Z
    ?GetSectionLevel@LoftObject@@QAEMH@Z @824 ; ?GetSectionLevel@LoftObject@@QAEMH@Z
    ?GetSectionModMatrix@LoftObject@@QAEAAVMatrix3@@H@Z @825 ; ?GetSectionModMatrix@LoftObject@@QAEAAVMatrix3@@H@Z
    ?GetSectionRef@LoftObject@@QAEHH@Z @826 ; ?GetSectionRef@LoftObject@@QAEHH@Z
    ?GetSelKeyCoords@DefNoteTrack@@UAEHAAHAAMK@Z @827 ; ?GetSelKeyCoords@DefNoteTrack@@UAEHAAHAAMK@Z
    ?GetShapeCount@LoftObject@@QAEHXZ @828 ; ?GetShapeCount@LoftObject@@QAEHXZ
    ?GetShapeLevel@LoftObject@@QAEMH@Z @829 ; ?GetShapeLevel@LoftObject@@QAEMH@Z
    ?GetShapeStandinDescriptor@@YAPAVClassDesc@@XZ @830 ; ?GetShapeStandinDescriptor@@YAPAVClassDesc@@XZ
    ?GetSharedMemBuffer@@YAPAXXZ   @831 ; ?GetSharedMemBuffer@@YAPAXXZ
    ?GetSkin@LoftObject@@QAEHXZ    @832 ; ?GetSkin@LoftObject@@QAEHXZ
    ?GetSkinShaded@LoftObject@@QAEHXZ @833 ; ?GetSkinShaded@LoftObject@@QAEHXZ
    ?GetSmoothLength@LoftObject@@QAEHXZ @834 ; ?GetSmoothLength@LoftObject@@QAEHXZ
    ?GetSmoothPerimeter@LoftObject@@QAEHXZ @835 ; ?GetSmoothPerimeter@LoftObject@@QAEHXZ
    ?GetSnapSpinValue@@YAMXZ       @836 ; ?GetSnapSpinValue@@YAMXZ
    ?GetSnapSpinner@@YAHXZ         @837 ; ?GetSnapSpinner@@YAHXZ
    ?GetSoundFileName@@YAHPAUHWND__@@AAVCStr@@1@Z @838 ; ?GetSoundFileName@@YAHPAUHWND__@@AAVCStr@@1@Z
    ?GetSoundObjStandinDescriptor@@YAPAVClassDesc@@XZ @839 ; ?GetSoundObjStandinDescriptor@@YAPAVClassDesc@@XZ
    ?GetSpinnerPrecision@@YAHXZ    @840 ; ?GetSpinnerPrecision@@YAHXZ
    ?GetSpline@BezierShape@@QAEPAVSpline3D@@H@Z @841 ; ?GetSpline@BezierShape@@QAEPAVSpline3D@@H@Z
    ?GetSplineShapeDescriptor@@YAPAVClassDesc@@XZ @842 ; ?GetSplineShapeDescriptor@@YAPAVClassDesc@@XZ
    ?GetSubMtlSlotName@Mtl@@UAE?AVCStr@@H@Z @843 ; ?GetSubMtlSlotName@Mtl@@UAE?AVCStr@@H@Z
    ?GetSubMtlTVName@Mtl@@QAE?AVCStr@@H@Z @844 ; ?GetSubMtlTVName@Mtl@@QAE?AVCStr@@H@Z
    ?GetSubObjectCenters@LoftObject@@UAEXPAVSubObjAxisCallback@@HPAVINode@@PAVModContext@@@Z @845 ; ?GetSubObjectCenters@LoftObject@@UAEXPAVSubObjAxisCallback@@HPAVINode@@PAVModContext@@@Z
    ?GetSubObjectCenters@SimpleMod@@UAEXPAVSubObjAxisCallback@@HPAVINode@@PAVModContext@@@Z @846 ; ?GetSubObjectCenters@SimpleMod@@UAEXPAVSubObjAxisCallback@@HPAVINode@@PAVModContext@@@Z
    ?GetSubObjectTMs@LoftObject@@UAEXPAVSubObjAxisCallback@@HPAVINode@@PAVModContext@@@Z @847 ; ?GetSubObjectTMs@LoftObject@@UAEXPAVSubObjAxisCallback@@HPAVINode@@PAVModContext@@@Z
    ?GetSubObjectTMs@SimpleMod@@UAEXPAVSubObjAxisCallback@@HPAVINode@@PAVModContext@@@Z @848 ; ?GetSubObjectTMs@SimpleMod@@UAEXPAVSubObjAxisCallback@@HPAVINode@@PAVModContext@@@Z
    ?GetSubTexmapSlotName@MtlBase@@UAE?AVCStr@@H@Z @849 ; ?GetSubTexmapSlotName@MtlBase@@UAE?AVCStr@@H@Z
    ?GetSubTexmapTVName@MtlBase@@QAE?AVCStr@@H@Z @850 ; ?GetSubTexmapTVName@MtlBase@@QAE?AVCStr@@H@Z
    ?GetSubselState@LinearShape@@UAEKXZ @851 ; ?GetSubselState@LinearShape@@UAEKXZ
    ?GetSubselState@LoftObject@@UAEKXZ @852 ; ?GetSubselState@LoftObject@@UAEKXZ
    ?GetSubselState@NurbsObject@@UAEKXZ @853 ; ?GetSubselState@NurbsObject@@UAEKXZ
    ?GetSubselState@PatchObject@@UAEKXZ @854 ; ?GetSubselState@PatchObject@@UAEKXZ
    ?GetSubselState@SplineShape@@UAEKXZ @855 ; ?GetSubselState@SplineShape@@UAEKXZ
    ?GetSubselState@TriObject@@UAEKXZ @856 ; ?GetSubselState@TriObject@@UAEKXZ
    ?GetSystemSetting@@YAHH@Z      @857 ; ?GetSystemSetting@@YAHH@Z
    ?GetSystemStandinDescriptor@@YAPAVClassDesc@@XZ @858 ; ?GetSystemStandinDescriptor@@YAPAVClassDesc@@XZ
    ?GetTM@ObjectState@@QBEPAVMatrix3@@XZ @859 ; ?GetTM@ObjectState@@QBEPAVMatrix3@@XZ
    ?GetTexmapStandinDescriptor@@YAPAVClassDesc@@XZ @860 ; ?GetTexmapStandinDescriptor@@YAPAVClassDesc@@XZ
    ?GetTicksPerFrame@@YAHXZ       @861 ; ?GetTicksPerFrame@@YAHXZ
    ?GetTimeDisplayMode@@YA?AW4TimeDisp@@XZ @862 ; ?GetTimeDisplayMode@@YA?AW4TimeDisp@@XZ
    ?GetTimeRange@Animatable@@UAE?AVInterval@@K@Z @863 ; ?GetTimeRange@Animatable@@UAE?AVInterval@@K@Z
    ?GetTimeRange@DefNoteTrack@@UAE?AVInterval@@K@Z @864 ; ?GetTimeRange@DefNoteTrack@@UAE?AVInterval@@K@Z
    ?GetTrackVSpace@DefNoteTrack@@UAEHH@Z @865 ; ?GetTrackVSpace@DefNoteTrack@@UAEHH@Z
    ?GetTransformCursor@ScaleCtrlApparatus@@UAEPAUHICON__@@XZ @866 ; ?GetTransformCursor@ScaleCtrlApparatus@@UAEPAUHICON__@@XZ
    ?GetTransformCursor@ScaleModBox@@UAEPAUHICON__@@XZ @867 ; ?GetTransformCursor@ScaleModBox@@UAEPAUHICON__@@XZ
    ?GetTriObjDescriptor@@YAPAVClassDesc@@XZ @868 ; ?GetTriObjDescriptor@@YAPAVClassDesc@@XZ
    ?GetTwist@LoftObject@@QAEMHM@Z @869 ; ?GetTwist@LoftObject@@QAEMHM@Z
    ?GetUVGenStandinDescriptor@@YAPAVClassDesc@@XZ @870 ; ?GetUVGenStandinDescriptor@@YAPAVClassDesc@@XZ
    ?GetUnitDisplayInfo@@YAXPAUDispInfo@@@Z @871 ; ?GetUnitDisplayInfo@@YAXPAUDispInfo@@@Z
    ?GetUnitDisplayType@@YAHXZ     @872 ; ?GetUnitDisplayType@@YAHXZ
    ?GetUseSubselState@ModApp@@UAEHXZ @873 ; ?GetUseSubselState@ModApp@@UAEHXZ
    ?GetUseSubselState@ObRefModApp@@UAEHXZ @874 ; ?GetUseSubselState@ObRefModApp@@UAEHXZ
    ?GetUserTypeControlStandinDescriptor@@YAPAVClassDesc@@XZ @875 ; ?GetUserTypeControlStandinDescriptor@@YAPAVClassDesc@@XZ
    ?GetValidity@LoftObject@@QAE?AVInterval@@H@Z @876 ; ?GetValidity@LoftObject@@QAE?AVInterval@@H@Z
    ?GetValue@StdControl@@UAEXHPAXAAVInterval@@W4GetSetMethod@@@Z @877 ; ?GetValue@StdControl@@UAEXHPAXAAVInterval@@W4GetSetMethod@@@Z
    ?GetVert@BezierShape@@QAEAAVPoint3@@HH@Z @878 ; ?GetVert@BezierShape@@QAEAAVPoint3@@HH@Z
    ?GetWSMObject@SimpleWSMMod@@QAEPAVWSMObject@@H@Z @879 ; ?GetWSMObject@SimpleWSMMod@@QAEPAVWSMObject@@H@Z
    ?GetWSMObjectStandinDescriptor@@YAPAVClassDesc@@XZ @880 ; ?GetWSMObjectStandinDescriptor@@YAPAVClassDesc@@XZ
    ?GetWSMStandinDescriptor@@YAPAVClassDesc@@XZ @881 ; ?GetWSMStandinDescriptor@@YAPAVClassDesc@@XZ
    ?GetWindowFloat@@YAMPAUHWND__@@PAH@Z @882 ; ?GetWindowFloat@@YAMPAUHWND__@@PAH@Z
    ?GetWindowInt@@YAHPAUHWND__@@PAH@Z @883 ; ?GetWindowInt@@YAHPAUHWND__@@PAH@Z
    ?GetWorldBoundBox@DummyObject@@UAEXHPAVINode@@PAVViewExp@@AAVBox3@@@Z @884 ; ?GetWorldBoundBox@DummyObject@@UAEXHPAVINode@@PAVViewExp@@AAVBox3@@@Z
    ?GetWorldBoundBox@GenDerivedObject@@UAEXHPAVINode@@PAVViewExp@@AAVBox3@@@Z @885 ; ?GetWorldBoundBox@GenDerivedObject@@UAEXHPAVINode@@PAVViewExp@@AAVBox3@@@Z
    ?GetWorldBoundBox@LinearShape@@UAEXHPAVINode@@PAVViewExp@@AAVBox3@@@Z @886 ; ?GetWorldBoundBox@LinearShape@@UAEXHPAVINode@@PAVViewExp@@AAVBox3@@@Z
    ?GetWorldBoundBox@LoftObject@@UAEXHPAVINode@@PAVViewExp@@AAVBox3@@@Z @887 ; ?GetWorldBoundBox@LoftObject@@UAEXHPAVINode@@PAVViewExp@@AAVBox3@@@Z
    ?GetWorldBoundBox@ModApp@@UAEXHPAVINode@@PAVViewExp@@AAVBox3@@@Z @888 ; ?GetWorldBoundBox@ModApp@@UAEXHPAVINode@@PAVViewExp@@AAVBox3@@@Z
    ?GetWorldBoundBox@NurbsObject@@UAEXHPAVINode@@PAVViewExp@@AAVBox3@@@Z @889 ; ?GetWorldBoundBox@NurbsObject@@UAEXHPAVINode@@PAVViewExp@@AAVBox3@@@Z
    ?GetWorldBoundBox@PatchObject@@UAEXHPAVINode@@PAVViewExp@@AAVBox3@@@Z @890 ; ?GetWorldBoundBox@PatchObject@@UAEXHPAVINode@@PAVViewExp@@AAVBox3@@@Z
    ?GetWorldBoundBox@SimpleMod@@UAEXHPAVINode@@PAVViewExp@@AAVBox3@@PAVModContext@@@Z @891 ; ?GetWorldBoundBox@SimpleMod@@UAEXHPAVINode@@PAVViewExp@@AAVBox3@@PAVModContext@@@Z
    ?GetWorldBoundBox@SimpleObject@@UAEXHPAVINode@@PAVViewExp@@AAVBox3@@@Z @892 ; ?GetWorldBoundBox@SimpleObject@@UAEXHPAVINode@@PAVViewExp@@AAVBox3@@@Z
    ?GetWorldBoundBox@SimpleParticle@@UAEXHPAVINode@@PAVViewExp@@AAVBox3@@@Z @893 ; ?GetWorldBoundBox@SimpleParticle@@UAEXHPAVINode@@PAVViewExp@@AAVBox3@@@Z
    ?GetWorldBoundBox@SimpleShape@@UAEXHPAVINode@@PAVViewExp@@AAVBox3@@@Z @894 ; ?GetWorldBoundBox@SimpleShape@@UAEXHPAVINode@@PAVViewExp@@AAVBox3@@@Z
    ?GetWorldBoundBox@SimpleSpline@@UAEXHPAVINode@@PAVViewExp@@AAVBox3@@@Z @895 ; ?GetWorldBoundBox@SimpleSpline@@UAEXHPAVINode@@PAVViewExp@@AAVBox3@@@Z
    ?GetWorldBoundBox@SimpleWSMObject@@UAEXHPAVINode@@PAVViewExp@@AAVBox3@@@Z @896 ; ?GetWorldBoundBox@SimpleWSMObject@@UAEXHPAVINode@@PAVViewExp@@AAVBox3@@@Z
    ?GetWorldBoundBox@SplineShape@@UAEXHPAVINode@@PAVViewExp@@AAVBox3@@@Z @897 ; ?GetWorldBoundBox@SplineShape@@UAEXHPAVINode@@PAVViewExp@@AAVBox3@@@Z
    ?GetWorldBoundBox@TriObject@@UAEXHPAVINode@@PAVViewExp@@AAVBox3@@@Z @898 ; ?GetWorldBoundBox@TriObject@@UAEXHPAVINode@@PAVViewExp@@AAVBox3@@@Z
    ?GetXFits@LoftObject@@QAEHHMAAM0@Z @899 ; ?GetXFits@LoftObject@@QAEHHMAAM0@Z
    ?GetXScale@LoftObject@@QAEMHM@Z @900 ; ?GetXScale@LoftObject@@QAEMHM@Z
    ?GetXTeeter@LoftObject@@QAEMHM@Z @901 ; ?GetXTeeter@LoftObject@@QAEMHM@Z
    ?GetXYZGenStandinDescriptor@@YAPAVClassDesc@@XZ @902 ; ?GetXYZGenStandinDescriptor@@YAPAVClassDesc@@XZ
    ?GetYFits@LoftObject@@QAEHHMAAM0@Z @903 ; ?GetYFits@LoftObject@@QAEHHMAAM0@Z
    ?GetYScale@LoftObject@@QAEMHM@Z @904 ; ?GetYScale@LoftObject@@QAEMHM@Z
    ?GetYTeeter@LoftObject@@QAEMHM@Z @905 ; ?GetYTeeter@LoftObject@@QAEMHM@Z
    ?GetiCur@Spline3D@@QAEHXZ      @906 ; ?GetiCur@Spline3D@@QAEHXZ
    ?GotPath@LoftObject@@QAEHXZ    @907 ; ?GotPath@LoftObject@@QAEHXZ
    ?HSVDlg_Do@@YAHPAUHWND__@@PAKPAVIPoint2@@PAVHSVCallback@@PAD@Z @908 ; ?HSVDlg_Do@@YAHPAUHWND__@@PAKPAVIPoint2@@PAVHSVCallback@@PAD@Z
    ?HSVtoHWBt@@YAXHHHPAH00@Z      @909 ; ?HSVtoHWBt@@YAXHHHPAH00@Z
    ?HSVtoRGB@@YA?AVColor@@V1@@Z   @910 ; ?HSVtoRGB@@YA?AVColor@@V1@@Z
    ?HSVtoRGB@@YAKHHH@Z            @911 ; ?HSVtoRGB@@YAKHHH@Z
    ?HWBttoHSV@@YAXHHHPAH00@Z      @912 ; ?HWBttoHSV@@YAXHHHPAH00@Z
    ?HasDependents@ReferenceTarget@@QAEHXZ @913 ; ?HasDependents@ReferenceTarget@@QAEHXZ
    ?HasNoteTracks@Animatable@@QAEHXZ @914 ; ?HasNoteTracks@Animatable@@QAEHXZ
    ?HasRealDependents@ReferenceTarget@@QAEHXZ @915 ; ?HasRealDependents@ReferenceTarget@@QAEHXZ
    ?HasSubElements@Animatable@@QAEHH@Z @916 ; ?HasSubElements@Animatable@@QAEHH@Z
    ?Hierarchy@LoftObject@@QAEAAVGenericHierarchy@@H@Z @917 ; ?Hierarchy@LoftObject@@QAEAAVGenericHierarchy@@H@Z
    ?HitTest@DummyObject@@UAEHHPAVINode@@HHHPAVIPoint2@@PAVViewExp@@@Z @918 ; ?HitTest@DummyObject@@UAEHHPAVINode@@HHHPAVIPoint2@@PAVViewExp@@@Z
    ?HitTest@GenControlSelectionProcessor@@MAEHPAVViewExp@@PAVIPoint2@@HH@Z @919 ; ?HitTest@GenControlSelectionProcessor@@MAEHPAVViewExp@@PAVIPoint2@@HH@Z
    ?HitTest@GenDerivedObject@@UAEHHPAVINode@@HHHPAVIPoint2@@PAVViewExp@@@Z @920 ; ?HitTest@GenDerivedObject@@UAEHHPAVINode@@HHHPAVIPoint2@@PAVViewExp@@@Z
    ?HitTest@GenModSelectionProcessor@@MAEHPAVViewExp@@PAVIPoint2@@HH@Z @921 ; ?HitTest@GenModSelectionProcessor@@MAEHPAVViewExp@@PAVIPoint2@@HH@Z
    ?HitTest@LinearShape@@UAEHHPAVINode@@HHHPAVIPoint2@@PAVViewExp@@@Z @922 ; ?HitTest@LinearShape@@UAEHHPAVINode@@HHHPAVIPoint2@@PAVViewExp@@@Z
    ?HitTest@LoftObject@@UAEHHPAVINode@@HHHPAVIPoint2@@PAVViewExp@@@Z @923 ; ?HitTest@LoftObject@@UAEHHPAVINode@@HHHPAVIPoint2@@PAVViewExp@@@Z
    ?HitTest@LoftObject@@UAEHHPAVINode@@HHHPAVIPoint2@@PAVViewExp@@PAVModContext@@@Z @924 ; ?HitTest@LoftObject@@UAEHHPAVINode@@HHHPAVIPoint2@@PAVViewExp@@PAVModContext@@@Z
    ?HitTest@ModApp@@UAEHHPAVINode@@HHHPAVIPoint2@@PAVViewExp@@@Z @925 ; ?HitTest@ModApp@@UAEHHPAVINode@@HHHPAVIPoint2@@PAVViewExp@@@Z
    ?HitTest@NurbsObject@@UAEHHPAVINode@@HHHPAVIPoint2@@PAVViewExp@@@Z @926 ; ?HitTest@NurbsObject@@UAEHHPAVINode@@HHHPAVIPoint2@@PAVViewExp@@@Z
    ?HitTest@PatchObject@@UAEHHPAVINode@@HHHPAVIPoint2@@PAVViewExp@@@Z @927 ; ?HitTest@PatchObject@@UAEHHPAVINode@@HHHPAVIPoint2@@PAVViewExp@@@Z
    ?HitTest@SimpleMod@@UAEHHPAVINode@@HHHPAVIPoint2@@PAVViewExp@@PAVModContext@@@Z @928 ; ?HitTest@SimpleMod@@UAEHHPAVINode@@HHHPAVIPoint2@@PAVViewExp@@PAVModContext@@@Z
    ?HitTest@SimpleObject@@UAEHHPAVINode@@HHHPAVIPoint2@@PAVViewExp@@@Z @929 ; ?HitTest@SimpleObject@@UAEHHPAVINode@@HHHPAVIPoint2@@PAVViewExp@@@Z
    ?HitTest@SimpleParticle@@UAEHHPAVINode@@HHHPAVIPoint2@@PAVViewExp@@@Z @930 ; ?HitTest@SimpleParticle@@UAEHHPAVINode@@HHHPAVIPoint2@@PAVViewExp@@@Z
    ?HitTest@SimpleShape@@UAEHHPAVINode@@HHHPAVIPoint2@@PAVViewExp@@@Z @931 ; ?HitTest@SimpleShape@@UAEHHPAVINode@@HHHPAVIPoint2@@PAVViewExp@@@Z
    ?HitTest@SimpleSpline@@UAEHHPAVINode@@HHHPAVIPoint2@@PAVViewExp@@@Z @932 ; ?HitTest@SimpleSpline@@UAEHHPAVINode@@HHHPAVIPoint2@@PAVViewExp@@@Z
    ?HitTest@SimpleWSMObject@@UAEHHPAVINode@@HHHPAVIPoint2@@PAVViewExp@@@Z @933 ; ?HitTest@SimpleWSMObject@@UAEHHPAVINode@@HHHPAVIPoint2@@PAVViewExp@@@Z
    ?HitTest@SplineShape@@UAEHHPAVINode@@HHHPAVIPoint2@@PAVViewExp@@@Z @934 ; ?HitTest@SplineShape@@UAEHHPAVINode@@HHHPAVIPoint2@@PAVViewExp@@@Z
    ?HitTest@TriObject@@UAEHHPAVINode@@HHHPAVIPoint2@@PAVViewExp@@@Z @935 ; ?HitTest@TriObject@@UAEHHPAVINode@@HHHPAVIPoint2@@PAVViewExp@@@Z
    ?HitTestTrack@DefNoteTrack@@UAEHAAV?$Tab@VTrackHitRecord@@@@AAVBox2@@1MHK@Z @936 ; ?HitTestTrack@DefNoteTrack@@UAEHAAV?$Tab@VTrackHitRecord@@@@AAVBox2@@1MHK@Z
    ?HitsPolyLine@PolyLine@@QAEHAAV1@@Z @937 ; ?HitsPolyLine@PolyLine@@QAEHAAV1@@Z
    ?HitsSegment@PolyLine@@QAEHVPoint2@@0@Z @938 ; ?HitsSegment@PolyLine@@QAEHVPoint2@@0@Z
    ?HoldTrack@DefNoteTrack@@QAEXXZ @939 ; ?HoldTrack@DefNoteTrack@@QAEXXZ
    ?Holding@Hold@@QAEHXZ          @940 ; ?Holding@Hold@@QAEHXZ
    ?HotLimit@@YAHPAUColor48@@H@Z  @941 ; ?HotLimit@@YAHPAUColor48@@H@Z
    ?HybridPoint@Spline3D@@QAEXH@Z @942 ; ?HybridPoint@Spline3D@@QAEXH@Z
    ?IdentityExtrapolate@@YA?AVQuat@@HHAAV1@@Z @943 ; ?IdentityExtrapolate@@YA?AVQuat@@HHAAV1@@Z
    ?InInterval@Interval@@QAEHH@Z  @944 ; ?InInterval@Interval@@QAEHH@Z
    ?IncrActive@Texmap@@QAEXXZ     @945 ; ?IncrActive@Texmap@@QAEXXZ
    ?IndexForSourceAxis@UVSourceDir@@QAEHKH@Z @946 ; ?IndexForSourceAxis@UVSourceDir@@QAEHKH@Z
    ?InhibitMesh@LoftObject@@QAEXH@Z @947 ; ?InhibitMesh@LoftObject@@QAEXH@Z
    ?Init@BezFontManager@@QAEXXZ   @948 ; ?Init@BezFontManager@@QAEXXZ
    ?Init@BezierShape@@QAEXXZ      @949 ; ?Init@BezierShape@@QAEXXZ
    ?Init@MeshCapInfo@@QAEXPAVPolyShape@@@Z @950 ; ?Init@MeshCapInfo@@QAEXPAVPolyShape@@@Z
    ?Init@MeshCapPoly@@QAEXAAVPolyLine@@@Z @951 ; ?Init@MeshCapPoly@@QAEXAAVPolyLine@@@Z
    ?Init@PatchCapInfo@@QAEXPAVBezierShape@@@Z @952 ; ?Init@PatchCapInfo@@QAEXPAVBezierShape@@@Z
    ?Init@PatchCapPoly@@QAEXAAVSpline3D@@@Z @953 ; ?Init@PatchCapPoly@@QAEXAAVSpline3D@@@Z
    ?Init@PolyShape@@QAEXXZ        @954 ; ?Init@PolyShape@@QAEXXZ
    ?Init@RightClickMenuManager@@QAEXPAUHMENU__@@HHPAUHWND__@@VIPoint2@@@Z @955 ; ?Init@RightClickMenuManager@@QAEXPAUHMENU__@@HHPAUHWND__@@VIPoint2@@@Z
    ?InitCustomControls@@YAXPAUHINSTANCE__@@@Z @956 ; ?InitCustomControls@@YAXPAUHINSTANCE__@@@Z
    ?InitDialog@JointParams@@QAEXPAVInterpCtrlUI@@@Z @957 ; ?InitDialog@JointParams@@QAEXPAVInterpCtrlUI@@@Z
    ?InitIKJointsPos@@YAXPAVControl@@PAVInitJointData@@@Z @958 ; ?InitIKJointsPos@@YAXPAVControl@@PAVInitJointData@@@Z
    ?InitIKJointsRot@@YAXPAVControl@@PAVInitJointData@@@Z @959 ; ?InitIKJointsRot@@YAXPAVControl@@PAVInitJointData@@@Z
    ?InitLofterCreateMethod@LoftObject@@QAEXXZ @960 ; ?InitLofterCreateMethod@LoftObject@@QAEXXZ
    ?InitLofterDeformParams@LoftObject@@QAEXXZ @961 ; ?InitLofterDeformParams@LoftObject@@QAEXXZ
    ?InitLofterPathCommands@LoftObject@@QAEXXZ @962 ; ?InitLofterPathCommands@LoftObject@@QAEXXZ
    ?InitLofterPathParams@LoftObject@@QAEXXZ @963 ; ?InitLofterPathParams@LoftObject@@QAEXXZ
    ?InitLofterShapeCommands@LoftObject@@QAEXXZ @964 ; ?InitLofterShapeCommands@LoftObject@@QAEXXZ
    ?InitLofterSkinParams@LoftObject@@QAEXXZ @965 ; ?InitLofterSkinParams@LoftObject@@QAEXXZ
    ?InitLofterSurfaceParams@LoftObject@@QAEXXZ @966 ; ?InitLofterSurfaceParams@LoftObject@@QAEXXZ
    ?InitObjectDataReaders@@YAXXZ  @967 ; ?InitObjectDataReaders@@YAXXZ
    ?InitTCBGraph@@YAXPAUHINSTANCE__@@@Z @968 ; ?InitTCBGraph@@YAXPAUHINSTANCE__@@@Z
    ?Insert@PolyLine@@QAEXHAAVPolyPt@@@Z @969 ; ?Insert@PolyLine@@QAEXHAAVPolyPt@@@Z
    ?Insert@PolyShape@@QAEXHAAVPolyLine@@@Z @970 ; ?Insert@PolyShape@@QAEXHAAVPolyLine@@@Z
    ?Insert@ShapePSel@@QAEXH@Z     @971 ; ?Insert@ShapePSel@@QAEXH@Z
    ?Insert@ShapeSSel@@QAEXHH@Z    @972 ; ?Insert@ShapeSSel@@QAEXHH@Z
    ?Insert@ShapeVSel@@QAEXHH@Z    @973 ; ?Insert@ShapeVSel@@QAEXHH@Z
    ?InsertModifier@GenDerivedObject@@QAEXPAVModifier@@PAVModContext@@@Z @974 ; ?InsertModifier@GenDerivedObject@@QAEXPAVModifier@@PAVModContext@@@Z
    ?InsertPoint@Spline3D@@QAEHPAVViewExp@@HAAVIPoint2@@M@Z @975 ; ?InsertPoint@Spline3D@@QAEHPAVViewExp@@HAAVIPoint2@@M@Z
    ?InsertSpline@BezierShape@@QAEHPAVSpline3D@@H@Z @976 ; ?InsertSpline@BezierShape@@QAEHPAVSpline3D@@H@Z
    ?InsertTime@DefNoteTrack@@UAEXHH@Z @977 ; ?InsertTime@DefNoteTrack@@UAEXHH@Z
    ?InstallThumbTack@@YAXPAUHWND__@@@Z @978 ; ?InstallThumbTack@@YAXPAUHWND__@@@Z
    ?InterpBezier3D@Spline3D@@QAE?AVPoint3@@HM@Z @979 ; ?InterpBezier3D@Spline3D@@QAE?AVPoint3@@HM@Z
    ?InterpBezier@Spline3D@@QAE?AVPoint2@@PAVIPoint2@@M@Z @980 ; ?InterpBezier@Spline3D@@QAE?AVPoint2@@PAVIPoint2@@M@Z
    ?InterpCurve3D@LinearShape@@UAE?AVPoint3@@HHM@Z @981 ; ?InterpCurve3D@LinearShape@@UAE?AVPoint3@@HHM@Z
    ?InterpCurve3D@PolyLine@@QAE?AVPoint3@@M@Z @982 ; ?InterpCurve3D@PolyLine@@QAE?AVPoint3@@M@Z
    ?InterpCurve3D@SimpleSpline@@UAE?AVPoint3@@HHM@Z @983 ; ?InterpCurve3D@SimpleSpline@@UAE?AVPoint3@@HHM@Z
    ?InterpCurve3D@Spline3D@@QAE?AVPoint3@@M@Z @984 ; ?InterpCurve3D@Spline3D@@QAE?AVPoint3@@M@Z
    ?InterpCurve3D@SplineShape@@UAE?AVPoint3@@HHM@Z @985 ; ?InterpCurve3D@SplineShape@@UAE?AVPoint3@@HHM@Z
    ?InterpCurve@LoftShape@@QAE?AVPoint3@@HHM@Z @986 ; ?InterpCurve@LoftShape@@QAE?AVPoint3@@HHM@Z
    ?InterpPiece3D@LinearShape@@UAE?AVPoint3@@HHHM@Z @987 ; ?InterpPiece3D@LinearShape@@UAE?AVPoint3@@HHHM@Z
    ?InterpPiece3D@PolyLine@@QAE?AVPoint3@@HM@Z @988 ; ?InterpPiece3D@PolyLine@@QAE?AVPoint3@@HM@Z
    ?InterpPiece3D@SimpleShape@@UAE?AVPoint3@@HHHM@Z @989 ; ?InterpPiece3D@SimpleShape@@UAE?AVPoint3@@HHHM@Z
    ?InterpPiece3D@SimpleSpline@@UAE?AVPoint3@@HHHM@Z @990 ; ?InterpPiece3D@SimpleSpline@@UAE?AVPoint3@@HHHM@Z
    ?InterpPiece3D@SplineShape@@UAE?AVPoint3@@HHHM@Z @991 ; ?InterpPiece3D@SplineShape@@UAE?AVPoint3@@HHHM@Z
    ?IntersectRay@LinearShape@@UAEHHAAVRay@@AAM@Z @992 ; ?IntersectRay@LinearShape@@UAEHHAAVRay@@AAM@Z
    ?IntersectRay@LoftObject@@QAEHHAAVRay@@AAM@Z @993 ; ?IntersectRay@LoftObject@@QAEHHAAVRay@@AAM@Z
    ?IntersectRay@NurbsObject@@QAEHHAAVRay@@AAM@Z @994 ; ?IntersectRay@NurbsObject@@QAEHHAAVRay@@AAM@Z
    ?IntersectRay@PatchObject@@QAEHHAAVRay@@AAM@Z @995 ; ?IntersectRay@PatchObject@@QAEHHAAVRay@@AAM@Z
    ?IntersectRay@SimpleObject@@UAEHHAAVRay@@AAMAAVPoint3@@@Z @996 ; ?IntersectRay@SimpleObject@@UAEHHAAVRay@@AAMAAVPoint3@@@Z
    ?IntersectRay@SimpleShape@@UAEHHAAVRay@@AAM@Z @997 ; ?IntersectRay@SimpleShape@@UAEHHAAVRay@@AAM@Z
    ?IntersectRay@SimpleSpline@@UAEHHAAVRay@@AAM@Z @998 ; ?IntersectRay@SimpleSpline@@UAEHHAAVRay@@AAM@Z
    ?IntersectRay@SplineShape@@UAEHHAAVRay@@AAM@Z @999 ; ?IntersectRay@SplineShape@@UAEHHAAVRay@@AAM@Z
    ?IntersectRay@TriObject@@UAEHHAAVRay@@AAMAAVPoint3@@@Z @1000; ?IntersectRay@TriObject@@UAEHHAAVRay@@AAMAAVPoint3@@@Z
    ?IntersectsSpline@Spline3D@@QAEHPAV1@@Z @1001; ?IntersectsSpline@Spline3D@@QAEHPAV1@@Z
    ?Invalidate@ObjectState@@QAEXKH@Z @1002; ?Invalidate@ObjectState@@QAEXKH@Z
    ?InvalidateAllCaches@LoftObject@@QAEXXZ @1003; ?InvalidateAllCaches@LoftObject@@QAEXXZ
    ?InvalidateAllSectionCaches@LoftObject@@QAEXXZ @1004; ?InvalidateAllSectionCaches@LoftObject@@QAEXXZ
    ?InvalidateCapCache@BezierShape@@QAEXXZ @1005; ?InvalidateCapCache@BezierShape@@QAEXXZ
    ?InvalidateCapCache@PolyShape@@QAEXXZ @1006; ?InvalidateCapCache@PolyShape@@QAEXXZ
    ?InvalidateChannels@LinearShape@@UAEXK@Z @1007; ?InvalidateChannels@LinearShape@@UAEXK@Z
    ?InvalidateChannels@NurbsObject@@UAEXK@Z @1008; ?InvalidateChannels@NurbsObject@@UAEXK@Z
    ?InvalidateChannels@PatchObject@@UAEXK@Z @1009; ?InvalidateChannels@PatchObject@@UAEXK@Z
    ?InvalidateChannels@SplineShape@@UAEXK@Z @1010; ?InvalidateChannels@SplineShape@@UAEXK@Z
    ?InvalidateChannels@TriObject@@UAEXK@Z @1011; ?InvalidateChannels@TriObject@@UAEXK@Z
    ?InvalidateGeomCache@BezierShape@@QAEXXZ @1012; ?InvalidateGeomCache@BezierShape@@QAEXXZ
    ?InvalidateGeomCache@LoftObject@@QAEXXZ @1013; ?InvalidateGeomCache@LoftObject@@QAEXXZ
    ?InvalidateGeomCache@PolyLine@@QAEXXZ @1014; ?InvalidateGeomCache@PolyLine@@QAEXXZ
    ?InvalidateGeomCache@PolyShape@@QAEXH@Z @1015; ?InvalidateGeomCache@PolyShape@@QAEXH@Z
    ?InvalidateGeomCache@Spline3D@@QAEXXZ @1016; ?InvalidateGeomCache@Spline3D@@QAEXXZ
    ?InvalidateMesh@NurbsObject@@QAEXXZ @1017; ?InvalidateMesh@NurbsObject@@QAEXXZ
    ?InvalidateMesh@PatchObject@@QAEXXZ @1018; ?InvalidateMesh@PatchObject@@QAEXXZ
    ?InvalidatePathCaches@LoftObject@@QAEXXZ @1019; ?InvalidatePathCaches@LoftObject@@QAEXXZ
    ?InvalidateReps@LoftObject@@QAEXXZ @1020; ?InvalidateReps@LoftObject@@QAEXXZ
    ?InvalidateShapeRefs@LoftObject@@QAEHH@Z @1021; ?InvalidateShapeRefs@LoftObject@@QAEHH@Z
    ?InvalidateTM@ObRefModApp@@QAEXXZ @1022; ?InvalidateTM@ObRefModApp@@QAEXXZ
    ?InvalidateUI@SimpleShape@@UAEXXZ @1023; ?InvalidateUI@SimpleShape@@UAEXXZ
    ?InvalidateUI@SimpleSpline@@UAEXXZ @1024; ?InvalidateUI@SimpleSpline@@UAEXXZ
    ?IsAccType@ClassEntry@@QAEHH@Z @1025; ?IsAccType@ClassEntry@@QAEHH@Z
    ?IsActive@ModApp@@QAEHXZ       @1026; ?IsActive@ModApp@@QAEHXZ
    ?IsAnimated@Animatable@@UAEHXZ @1027; ?IsAnimated@Animatable@@UAEHXZ
    ?IsAnimated@DefNoteTrack@@UAEHXZ @1028; ?IsAnimated@DefNoteTrack@@UAEHXZ
    ?IsAuto@Spline3D@@QAEHH@Z      @1029; ?IsAuto@Spline3D@@QAEHH@Z
    ?IsBezierPt@Spline3D@@QAEHH@Z  @1030; ?IsBezierPt@Spline3D@@QAEHH@Z
    ?IsClockWise@PolyLine@@QAEHXZ  @1031; ?IsClockWise@PolyLine@@QAEHXZ
    ?IsClockWise@Spline3D@@QAEHXZ  @1032; ?IsClockWise@Spline3D@@QAEHXZ
    ?IsCompatible@ShapePSel@@QAEHAAVBezierShape@@@Z @1033; ?IsCompatible@ShapePSel@@QAEHAAVBezierShape@@@Z
    ?IsCompatible@ShapePSel@@QAEHAAVPolyShape@@@Z @1034; ?IsCompatible@ShapePSel@@QAEHAAVPolyShape@@@Z
    ?IsCompatible@ShapeSSel@@QAEHAAVBezierShape@@@Z @1035; ?IsCompatible@ShapeSSel@@QAEHAAVBezierShape@@@Z
    ?IsCompatible@ShapeSSel@@QAEHAAVPolyShape@@@Z @1036; ?IsCompatible@ShapeSSel@@QAEHAAVPolyShape@@@Z
    ?IsCompatible@ShapeVSel@@QAEHAAVBezierShape@@@Z @1037; ?IsCompatible@ShapeVSel@@QAEHAAVBezierShape@@@Z
    ?IsCompatible@ShapeVSel@@QAEHAAVPolyShape@@@Z @1038; ?IsCompatible@ShapeVSel@@QAEHAAVPolyShape@@@Z
    ?IsCorner@Spline3D@@QAEHH@Z    @1039; ?IsCorner@Spline3D@@QAEHH@Z
    ?IsDefault@JointParams@@QAEHXZ @1040; ?IsDefault@JointParams@@QAEHXZ
    ?IsEaseEnabled@EaseCurveList@@QAEHH@Z @1041; ?IsEaseEnabled@EaseCurveList@@QAEHH@Z
    ?IsInstanceDependent@LoftObject@@UAEHXZ @1042; ?IsInstanceDependent@LoftObject@@UAEHXZ
    ?IsInstanceDependent@NurbsObject@@UAEHXZ @1043; ?IsInstanceDependent@NurbsObject@@UAEHXZ
    ?IsInstanceDependent@PatchObject@@UAEHXZ @1044; ?IsInstanceDependent@PatchObject@@UAEHXZ
    ?IsMultEnabled@MultCurveList@@QAEHH@Z @1045; ?IsMultEnabled@MultCurveList@@QAEHH@Z
    ?IsRenderable@SimpleShape@@UAEHXZ @1046; ?IsRenderable@SimpleShape@@UAEHXZ
    ?IsRenderable@SimpleSpline@@UAEHXZ @1047; ?IsRenderable@SimpleSpline@@UAEHXZ
    ?IsRollupPanelOpen@@YAHPAUHWND__@@@Z @1048; ?IsRollupPanelOpen@@YAHPAUHWND__@@@Z
    ?IsTreeEntryOpen@Animatable@@QAEHH@Z @1049; ?IsTreeEntryOpen@Animatable@@QAEHH@Z
    ?IsValid@LoftObject@@QAEHH@Z   @1050; ?IsValid@LoftObject@@QAEHH@Z
    ?IsValidCharacter@SpinnerControl@@QAEHH@Z @1051; ?IsValidCharacter@SpinnerControl@@QAEHH@Z
    ?IsValidUnitCharacter@@YAHH@Z  @1052; ?IsValidUnitCharacter@@YAHH@Z
    ?JointParamDlgProc@@YGHPAUHWND__@@IIJ@Z @1053; ?JointParamDlgProc@@YGHPAUHWND__@@IIJ@Z
    ?KeysChanged@NoteKeyTab@@QAEXXZ @1054; ?KeysChanged@NoteKeyTab@@QAEXXZ
    ?LButDown@SpinnerControl@@UAEJHHG@Z @1055; ?LButDown@SpinnerControl@@UAEJHHG@Z
    ?LButUp@SpinnerControl@@UAEJHHG@Z @1056; ?LButUp@SpinnerControl@@UAEJHHG@Z
    ?LegalFrameRate@@YAHH@Z        @1057; ?LegalFrameRate@@YAHH@Z
    ?LengthOfCurve@LinearShape@@UAEMHH@Z @1058; ?LengthOfCurve@LinearShape@@UAEMHH@Z
    ?LengthOfCurve@SimpleSpline@@UAEMHH@Z @1059; ?LengthOfCurve@SimpleSpline@@UAEMHH@Z
    ?LengthOfCurve@SplineShape@@UAEMHH@Z @1060; ?LengthOfCurve@SplineShape@@UAEMHH@Z
    ?LinearBack@Spline3D@@QAEXH@Z  @1061; ?LinearBack@Spline3D@@QAEXH@Z
    ?LinearExtrapolate@@YA?AVQuat@@HHAAV1@00@Z @1062; ?LinearExtrapolate@@YA?AVQuat@@HHAAV1@00@Z
    ?LinearFwd@Spline3D@@QAEXH@Z   @1063; ?LinearFwd@Spline3D@@QAEXH@Z
    ?LinkToEdit@SpinnerControl@@QAEXPAUHWND__@@W4EditSpinnerType@@@Z @1064; ?LinkToEdit@SpinnerControl@@QAEXPAUHWND__@@W4EditSpinnerType@@@Z
    ?Load@AnimAppData@@QAE?AW4IOResult@@PAVILoad@@@Z @1065; ?Load@AnimAppData@@QAE?AW4IOResult@@PAVILoad@@@Z
    ?Load@AppDataChunk@@QAE?AW4IOResult@@PAVILoad@@@Z @1066; ?Load@AppDataChunk@@QAE?AW4IOResult@@PAVILoad@@@Z
    ?Load@BezierShape@@QAE?AW4IOResult@@PAVILoad@@@Z @1067; ?Load@BezierShape@@QAE?AW4IOResult@@PAVILoad@@@Z
    ?Load@CompareInfo@@QAE?AW4IOResult@@PAVILoad@@@Z @1068; ?Load@CompareInfo@@QAE?AW4IOResult@@PAVILoad@@@Z
    ?Load@Control@@UAE?AW4IOResult@@PAVILoad@@@Z @1069; ?Load@Control@@UAE?AW4IOResult@@PAVILoad@@@Z
    ?Load@CrossSection@@QAE?AW4IOResult@@PAVILoad@@@Z @1070; ?Load@CrossSection@@QAE?AW4IOResult@@PAVILoad@@@Z
    ?Load@DefNoteTrack@@UAE?AW4IOResult@@PAVILoad@@@Z @1071; ?Load@DefNoteTrack@@UAE?AW4IOResult@@PAVILoad@@@Z
    ?Load@DeformInfo@@QAE?AW4IOResult@@PAVILoad@@@Z @1072; ?Load@DeformInfo@@QAE?AW4IOResult@@PAVILoad@@@Z
    ?Load@DummyObject@@UAE?AW4IOResult@@PAVILoad@@@Z @1073; ?Load@DummyObject@@UAE?AW4IOResult@@PAVILoad@@@Z
    ?Load@EaseCurveList@@UAE?AW4IOResult@@PAVILoad@@@Z @1074; ?Load@EaseCurveList@@UAE?AW4IOResult@@PAVILoad@@@Z
    ?Load@GenDerivedObject@@UAE?AW4IOResult@@PAVILoad@@@Z @1075; ?Load@GenDerivedObject@@UAE?AW4IOResult@@PAVILoad@@@Z
    ?Load@JointParams@@QAE?AW4IOResult@@PAVILoad@@@Z @1076; ?Load@JointParams@@QAE?AW4IOResult@@PAVILoad@@@Z
    ?Load@LinearShape@@UAE?AW4IOResult@@PAVILoad@@@Z @1077; ?Load@LinearShape@@UAE?AW4IOResult@@PAVILoad@@@Z
    ?Load@LoftLoader@@QAE?AW4IOResult@@PAVILoad@@@Z @1078; ?Load@LoftLoader@@QAE?AW4IOResult@@PAVILoad@@@Z
    ?Load@LoftObject@@UAE?AW4IOResult@@PAVILoad@@@Z @1079; ?Load@LoftObject@@UAE?AW4IOResult@@PAVILoad@@@Z
    ?Load@LoftShape@@QAE?AW4IOResult@@PAVILoad@@@Z @1080; ?Load@LoftShape@@QAE?AW4IOResult@@PAVILoad@@@Z
    ?Load@ModApp@@UAE?AW4IOResult@@PAVILoad@@@Z @1081; ?Load@ModApp@@UAE?AW4IOResult@@PAVILoad@@@Z
    ?Load@Modifier@@UAE?AW4IOResult@@PAVILoad@@@Z @1082; ?Load@Modifier@@UAE?AW4IOResult@@PAVILoad@@@Z
    ?Load@MtlBase@@UAE?AW4IOResult@@PAVILoad@@@Z @1083; ?Load@MtlBase@@UAE?AW4IOResult@@PAVILoad@@@Z
    ?Load@MtlBaseLib@@UAE?AW4IOResult@@PAVILoad@@@Z @1084; ?Load@MtlBaseLib@@UAE?AW4IOResult@@PAVILoad@@@Z
    ?Load@MtlLib@@UAE?AW4IOResult@@PAVILoad@@@Z @1085; ?Load@MtlLib@@UAE?AW4IOResult@@PAVILoad@@@Z
    ?Load@MultCurveList@@UAE?AW4IOResult@@PAVILoad@@@Z @1086; ?Load@MultCurveList@@UAE?AW4IOResult@@PAVILoad@@@Z
    ?Load@NurbsObject@@UAE?AW4IOResult@@PAVILoad@@@Z @1087; ?Load@NurbsObject@@UAE?AW4IOResult@@PAVILoad@@@Z
    ?Load@ObRefModApp@@UAE?AW4IOResult@@PAVILoad@@@Z @1088; ?Load@ObRefModApp@@UAE?AW4IOResult@@PAVILoad@@@Z
    ?Load@PatchObject@@UAE?AW4IOResult@@PAVILoad@@@Z @1089; ?Load@PatchObject@@UAE?AW4IOResult@@PAVILoad@@@Z
    ?Load@PolyLine@@QAE?AW4IOResult@@PAVILoad@@@Z @1090; ?Load@PolyLine@@QAE?AW4IOResult@@PAVILoad@@@Z
    ?Load@PolyShape@@QAE?AW4IOResult@@PAVILoad@@@Z @1091; ?Load@PolyShape@@QAE?AW4IOResult@@PAVILoad@@@Z
    ?Load@ReferenceMaker@@UAE?AW4IOResult@@PAVILoad@@@Z @1092; ?Load@ReferenceMaker@@UAE?AW4IOResult@@PAVILoad@@@Z
    ?Load@ShapePSel@@QAE?AW4IOResult@@PAVILoad@@@Z @1093; ?Load@ShapePSel@@QAE?AW4IOResult@@PAVILoad@@@Z
    ?Load@ShapeSSel@@QAE?AW4IOResult@@PAVILoad@@@Z @1094; ?Load@ShapeSSel@@QAE?AW4IOResult@@PAVILoad@@@Z
    ?Load@ShapeVSel@@QAE?AW4IOResult@@PAVILoad@@@Z @1095; ?Load@ShapeVSel@@QAE?AW4IOResult@@PAVILoad@@@Z
    ?Load@SimpleShape@@UAE?AW4IOResult@@PAVILoad@@@Z @1096; ?Load@SimpleShape@@UAE?AW4IOResult@@PAVILoad@@@Z
    ?Load@SimpleSpline@@UAE?AW4IOResult@@PAVILoad@@@Z @1097; ?Load@SimpleSpline@@UAE?AW4IOResult@@PAVILoad@@@Z
    ?Load@Spline3D@@QAE?AW4IOResult@@PAVILoad@@@Z @1098; ?Load@Spline3D@@QAE?AW4IOResult@@PAVILoad@@@Z
    ?Load@SplineShape@@UAE?AW4IOResult@@PAVILoad@@@Z @1099; ?Load@SplineShape@@UAE?AW4IOResult@@PAVILoad@@@Z
    ?Load@TriObject@@UAE?AW4IOResult@@PAVILoad@@@Z @1100; ?Load@TriObject@@UAE?AW4IOResult@@PAVILoad@@@Z
    ?LoadAndSetRefs@GenDerivedObject@@QAE?AW4IOResult@@PAVILoad@@AAV?$Tab@PAVReferenceMaker@@@@@Z @1101; ?LoadAndSetRefs@GenDerivedObject@@QAE?AW4IOResult@@PAVILoad@@AAV?$Tab@PAVReferenceMaker@@@@@Z
    ?LoadDllsFromDir@DllDir@@QAEHPAD0PAUHWND__@@@Z @1102; ?LoadDllsFromDir@DllDir@@QAEHPAD0PAUHWND__@@@Z
    ?LocalBoundingBox@LoftShape@@QAE?AVBox3@@HH@Z @1103; ?LocalBoundingBox@LoftShape@@QAE?AVBox3@@HH@Z
    ?LocalValidity@Modifier@@UAE?AVInterval@@H@Z @1104; ?LocalValidity@Modifier@@UAE?AVInterval@@H@Z
    ?LocalValidity@SimpleMod@@UAE?AVInterval@@H@Z @1105; ?LocalValidity@SimpleMod@@UAE?AVInterval@@H@Z
    ?LocalValidity@SimpleWSMMod@@UAE?AVInterval@@H@Z @1106; ?LocalValidity@SimpleWSMMod@@UAE?AVInterval@@H@Z
    ?LoftObjectClone@LoftObject@@QAEXPAV1@AAVRemapDir@@@Z @1107; ?LoftObjectClone@LoftObject@@QAEXPAV1@AAVRemapDir@@@Z
    ?LogHit@HitLog@@QAEXPAVINode@@PAVModContext@@KKPAVHitData@@@Z @1108; ?LogHit@HitLog@@QAEXPAVINode@@PAVModContext@@KKPAVHitData@@@Z
    ?Make3DSCap@PolyShape@@QAEHAAVMeshCapInfo@@K@Z @1109; ?Make3DSCap@PolyShape@@QAEHAAVMeshCapInfo@@K@Z
    ?MakeBezCont@Spline3D@@QAEXH@Z @1110; ?MakeBezCont@Spline3D@@QAEXH@Z
    ?MakeBezier@LinearShape@@UAEXHAAVBezierShape@@@Z @1111; ?MakeBezier@LinearShape@@UAEXHAAVBezierShape@@@Z
    ?MakeBezier@SimpleShape@@UAEXHAAVBezierShape@@@Z @1112; ?MakeBezier@SimpleShape@@UAEXHAAVBezierShape@@@Z
    ?MakeBezier@SimpleSpline@@UAEXHAAVBezierShape@@@Z @1113; ?MakeBezier@SimpleSpline@@UAEXHAAVBezierShape@@@Z
    ?MakeBezier@SplineShape@@UAEXHAAVBezierShape@@@Z @1114; ?MakeBezier@SplineShape@@UAEXHAAVBezierShape@@@Z
    ?MakeBrushesSolid@@YAXH@Z      @1115; ?MakeBrushesSolid@@YAXH@Z
    ?MakeButton2State@@YAXPAUHWND__@@@Z @1116; ?MakeButton2State@@YAXPAUHWND__@@@Z
    ?MakeButton3State@@YAXPAUHWND__@@@Z @1117; ?MakeButton3State@@YAXPAUHWND__@@@Z
    ?MakeCap@BezierShape@@QAEHHAAVMeshCapInfo@@H@Z @1118; ?MakeCap@BezierShape@@QAEHHAAVMeshCapInfo@@H@Z
    ?MakeCap@BezierShape@@QAEHHAAVPatchCapInfo@@@Z @1119; ?MakeCap@BezierShape@@QAEHHAAVPatchCapInfo@@@Z
    ?MakeCap@LinearShape@@UAEHHAAVMeshCapInfo@@H@Z @1120; ?MakeCap@LinearShape@@UAEHHAAVMeshCapInfo@@H@Z
    ?MakeCap@LinearShape@@UAEHHAAVPatchCapInfo@@@Z @1121; ?MakeCap@LinearShape@@UAEHHAAVPatchCapInfo@@@Z
    ?MakeCap@PolyShape@@QAEHHAAVMeshCapInfo@@H@Z @1122; ?MakeCap@PolyShape@@QAEHHAAVMeshCapInfo@@H@Z
    ?MakeCap@PolyShape@@QAEHHAAVPatchCapInfo@@@Z @1123; ?MakeCap@PolyShape@@QAEHHAAVPatchCapInfo@@@Z
    ?MakeCap@SimpleShape@@UAEHHAAVMeshCapInfo@@H@Z @1124; ?MakeCap@SimpleShape@@UAEHHAAVMeshCapInfo@@H@Z
    ?MakeCap@SimpleShape@@UAEHHAAVPatchCapInfo@@@Z @1125; ?MakeCap@SimpleShape@@UAEHHAAVPatchCapInfo@@@Z
    ?MakeCap@SimpleSpline@@UAEHHAAVMeshCapInfo@@H@Z @1126; ?MakeCap@SimpleSpline@@UAEHHAAVMeshCapInfo@@H@Z
    ?MakeCap@SimpleSpline@@UAEHHAAVPatchCapInfo@@@Z @1127; ?MakeCap@SimpleSpline@@UAEHHAAVPatchCapInfo@@@Z
    ?MakeCap@SplineShape@@UAEHHAAVMeshCapInfo@@H@Z @1128; ?MakeCap@SplineShape@@UAEHHAAVMeshCapInfo@@H@Z
    ?MakeCap@SplineShape@@UAEHHAAVPatchCapInfo@@@Z @1129; ?MakeCap@SplineShape@@UAEHHAAVPatchCapInfo@@@Z
    ?MakeFirst@BezierShape@@QAEXHH@Z @1130; ?MakeFirst@BezierShape@@QAEXHH@Z
    ?MakeGridCap@PolyShape@@QAEHAAVMeshCapInfo@@@Z @1131; ?MakeGridCap@PolyShape@@QAEHAAVMeshCapInfo@@@Z
    ?MakeHitRegion@@YAXAAVHitRegion@@HHHPAVIPoint2@@@Z @1132; ?MakeHitRegion@@YAXAAVHitRegion@@HHHPAVIPoint2@@@Z
    ?MakeLevelCurrent@LoftObject@@QAEMH@Z @1133; ?MakeLevelCurrent@LoftObject@@QAEMH@Z
    ?MakeObjectDerivedObject@@YAPAVObject@@PAV1@@Z @1134; ?MakeObjectDerivedObject@@YAPAVObject@@PAV1@@Z
    ?MakePolyLine@Spline3D@@QAEXAAVPolyLine@@HH@Z @1135; ?MakePolyLine@Spline3D@@QAEXAAVPolyLine@@HH@Z
    ?MakePolyShape@BezierShape@@QAEXAAVPolyShape@@HH@Z @1136; ?MakePolyShape@BezierShape@@QAEXAAVPolyShape@@HH@Z
    ?MakePolyShape@LinearShape@@UAEXHAAVPolyShape@@HH@Z @1137; ?MakePolyShape@LinearShape@@UAEXHAAVPolyShape@@HH@Z
    ?MakePolyShape@SimpleShape@@UAEXHAAVPolyShape@@HH@Z @1138; ?MakePolyShape@SimpleShape@@UAEXHAAVPolyShape@@HH@Z
    ?MakePolyShape@SimpleSpline@@UAEXHAAVPolyShape@@HH@Z @1139; ?MakePolyShape@SimpleSpline@@UAEXHAAVPolyShape@@HH@Z
    ?MakePolyShape@SplineShape@@UAEXHAAVPolyShape@@HH@Z @1140; ?MakePolyShape@SplineShape@@UAEXHAAVPolyShape@@HH@Z
    ?MakeRefByID@ReferenceMaker@@QAE?AW4RefResult@@VInterval@@HPAVReferenceTarget@@@Z @1141; ?MakeRefByID@ReferenceMaker@@QAE?AW4RefResult@@VInterval@@HPAVReferenceTarget@@@Z
    ?MakeReference@ReferenceTarget@@QAE?AW4RefResult@@VInterval@@PAVReferenceMaker@@H@Z @1142; ?MakeReference@ReferenceTarget@@QAE?AW4RefResult@@VInterval@@PAVReferenceMaker@@H@Z
    ?MakeShallowCopy@LinearShape@@UAEPAVObject@@K@Z @1143; ?MakeShallowCopy@LinearShape@@UAEPAVObject@@K@Z
    ?MakeShallowCopy@NurbsObject@@UAEPAVObject@@K@Z @1144; ?MakeShallowCopy@NurbsObject@@UAEPAVObject@@K@Z
    ?MakeShallowCopy@PatchObject@@UAEPAVObject@@K@Z @1145; ?MakeShallowCopy@PatchObject@@UAEPAVObject@@K@Z
    ?MakeShallowCopy@SimpleParticle@@UAEPAVObject@@K@Z @1146; ?MakeShallowCopy@SimpleParticle@@UAEPAVObject@@K@Z
    ?MakeShallowCopy@SplineShape@@UAEPAVObject@@K@Z @1147; ?MakeShallowCopy@SplineShape@@UAEPAVObject@@K@Z
    ?MakeShallowCopy@TriObject@@UAEPAVObject@@K@Z @1148; ?MakeShallowCopy@TriObject@@UAEPAVObject@@K@Z
    ?MakeUnique@ModApp@@QAEXXZ     @1149; ?MakeUnique@ModApp@@QAEXXZ
    ?MapKeys@Animatable@@UAEXPAVTimeMap@@K@Z @1150; ?MapKeys@Animatable@@UAEXPAVTimeMap@@K@Z
    ?MapKeys@DefNoteTrack@@UAEXPAVTimeMap@@K@Z @1151; ?MapKeys@DefNoteTrack@@UAEXPAVTimeMap@@K@Z
    ?MaybeAutoDelete@ReferenceTarget@@QAE?AW4RefResult@@XZ @1152; ?MaybeAutoDelete@ReferenceTarget@@QAE?AW4RefResult@@XZ
    ?MaybeDisableControls@SimpleSplineDlgProc@@QAEXPAUHWND__@@@Z @1153; ?MaybeDisableControls@SimpleSplineDlgProc@@QAEXPAUHWND__@@@Z
    ?MaybeLockoutGetShape@LoftObject@@QAEXXZ @1154; ?MaybeLockoutGetShape@LoftObject@@QAEXXZ
    ?MixIn@ShadeOutput@@QAEXAAV1@M@Z @1155; ?MixIn@ShadeOutput@@QAEXAAV1@M@Z
    ?ModifyObject@SimpleMod@@UAEXHAAVModContext@@PAVObjectState@@PAVINode@@@Z @1156; ?ModifyObject@SimpleMod@@UAEXHAAVModContext@@PAVObjectState@@PAVINode@@@Z
    ?ModifyObject@SimpleWSMMod@@UAEXHAAVModContext@@PAVObjectState@@PAVINode@@@Z @1157; ?ModifyObject@SimpleWSMMod@@UAEXHAAVModContext@@PAVObjectState@@PAVINode@@@Z
    ?MouseMove@SpinnerControl@@UAEJHHG@Z @1158; ?MouseMove@SpinnerControl@@UAEJHHG@Z
    ?MouseWinProc@MouseManager@@QAGJPAUHWND__@@IIJ@Z @1159; ?MouseWinProc@MouseManager@@QAGJPAUHWND__@@IIJ@Z
    ?Move@LoftObject@@UAEXHAAVMatrix3@@0AAVPoint3@@H@Z @1160; ?Move@LoftObject@@UAEXHAAVMatrix3@@0AAVPoint3@@H@Z
    ?Move@SimpleMod@@UAEXHAAVMatrix3@@0AAVPoint3@@H@Z @1161; ?Move@SimpleMod@@UAEXHAAVMatrix3@@0AAVPoint3@@H@Z
    ?NaturalBack@Spline3D@@QAEXH@Z @1162; ?NaturalBack@Spline3D@@QAEXH@Z
    ?NaturalFwd@Spline3D@@QAEXH@Z  @1163; ?NaturalFwd@Spline3D@@QAEXH@Z
    ?NewAndCopyChannels@BezierShape@@QAEXK@Z @1164; ?NewAndCopyChannels@BezierShape@@QAEXK@Z
    ?NewAndCopyChannels@LinearShape@@UAEXK@Z @1165; ?NewAndCopyChannels@LinearShape@@UAEXK@Z
    ?NewAndCopyChannels@NurbsObject@@UAEXK@Z @1166; ?NewAndCopyChannels@NurbsObject@@UAEXK@Z
    ?NewAndCopyChannels@PatchObject@@UAEXK@Z @1167; ?NewAndCopyChannels@PatchObject@@UAEXK@Z
    ?NewAndCopyChannels@PolyShape@@QAEXK@Z @1168; ?NewAndCopyChannels@PolyShape@@QAEXK@Z
    ?NewAndCopyChannels@SplineShape@@UAEXK@Z @1169; ?NewAndCopyChannels@SplineShape@@UAEXK@Z
    ?NewAndCopyChannels@TriObject@@UAEXK@Z @1170; ?NewAndCopyChannels@TriObject@@UAEXK@Z
    ?NewDefaultBitmapTex@@YAPAVBitmapTex@@XZ @1171; ?NewDefaultBitmapTex@@YAPAVBitmapTex@@XZ
    ?NewDefaultBoolController@@YAPAVControl@@XZ @1172; ?NewDefaultBoolController@@YAPAVControl@@XZ
    ?NewDefaultColorController@@YAPAVControl@@XZ @1173; ?NewDefaultColorController@@YAPAVControl@@XZ
    ?NewDefaultCompositeTex@@YAPAVMultiTex@@XZ @1174; ?NewDefaultCompositeTex@@YAPAVMultiTex@@XZ
    ?NewDefaultFloatController@@YAPAVControl@@XZ @1175; ?NewDefaultFloatController@@YAPAVControl@@XZ
    ?NewDefaultGradTex@@YAPAVGradTex@@XZ @1176; ?NewDefaultGradTex@@YAPAVGradTex@@XZ
    ?NewDefaultMatrix3Controller@@YAPAVControl@@XZ @1177; ?NewDefaultMatrix3Controller@@YAPAVControl@@XZ
    ?NewDefaultMixTex@@YAPAVMultiTex@@XZ @1178; ?NewDefaultMixTex@@YAPAVMultiTex@@XZ
    ?NewDefaultMultiMtl@@YAPAVMultiMtl@@XZ @1179; ?NewDefaultMultiMtl@@YAPAVMultiMtl@@XZ
    ?NewDefaultNoteTrack@@YAPAVNoteTrack@@XZ @1180; ?NewDefaultNoteTrack@@YAPAVNoteTrack@@XZ
    ?NewDefaultPoint3Controller@@YAPAVControl@@XZ @1181; ?NewDefaultPoint3Controller@@YAPAVControl@@XZ
    ?NewDefaultPositionController@@YAPAVControl@@XZ @1182; ?NewDefaultPositionController@@YAPAVControl@@XZ
    ?NewDefaultRotationController@@YAPAVControl@@XZ @1183; ?NewDefaultRotationController@@YAPAVControl@@XZ
    ?NewDefaultScaleController@@YAPAVControl@@XZ @1184; ?NewDefaultScaleController@@YAPAVControl@@XZ
    ?NewDefaultSoundObj@@YAPAVSoundObj@@XZ @1185; ?NewDefaultSoundObj@@YAPAVSoundObj@@XZ
    ?NewDefaultStdCubic@@YAPAVStdCubic@@XZ @1186; ?NewDefaultStdCubic@@YAPAVStdCubic@@XZ
    ?NewDefaultStdFog@@YAPAVStdFog@@XZ @1187; ?NewDefaultStdFog@@YAPAVStdFog@@XZ
    ?NewDefaultStdMat@@YAPAVStdMat@@XZ @1188; ?NewDefaultStdMat@@YAPAVStdMat@@XZ
    ?NewDefaultStdMirror@@YAPAVStdMirror@@XZ @1189; ?NewDefaultStdMirror@@YAPAVStdMirror@@XZ
    ?NewDefaultTintTex@@YAPAVMultiTex@@XZ @1190; ?NewDefaultTintTex@@YAPAVMultiTex@@XZ
    ?NewLine@PolyShape@@QAEPAVPolyLine@@XZ @1191; ?NewLine@PolyShape@@QAEPAVPolyLine@@XZ
    ?NewRemapDir@@YAPAVRemapDir@@XZ @1192; ?NewRemapDir@@YAPAVRemapDir@@XZ
    ?NewShape@BezierShape@@QAEXXZ  @1193; ?NewShape@BezierShape@@QAEXXZ
    ?NewShape@PolyShape@@QAEXXZ    @1194; ?NewShape@PolyShape@@QAEXXZ
    ?NewSpline@BezierShape@@QAEPAVSpline3D@@HHH@Z @1195; ?NewSpline@BezierShape@@QAEPAVSpline3D@@HHH@Z
    ?NewSpline@Spline3D@@QAEXXZ    @1196; ?NewSpline@Spline3D@@QAEXXZ
    ?Next@DependentIterator@@QAEPAVReferenceMaker@@XZ @1197; ?Next@DependentIterator@@QAEPAVReferenceMaker@@XZ
    ?NextShape@LoftObject@@QAEMXZ  @1198; ?NextShape@LoftObject@@QAEMXZ
    ?NextShapeLevel@LoftObject@@QAEMXZ @1199; ?NextShapeLevel@LoftObject@@QAEMXZ
    ?NoRemap@@YAAAVRemapDir@@XZ    @1200; ?NoRemap@@YAAAVRemapDir@@XZ
    ?NodeName@Animatable@@UAE?AVCStr@@XZ @1201; ?NodeName@Animatable@@UAE?AVCStr@@XZ
    ?NotifyDependents@ReferenceMaker@@UAE?AW4RefResult@@VInterval@@KIKHPAVReferenceTarget@@@Z @1202; ?NotifyDependents@ReferenceMaker@@UAE?AW4RefResult@@VInterval@@KIKHPAVReferenceTarget@@@Z
    ?NotifyDependents@ReferenceTarget@@UAE?AW4RefResult@@VInterval@@KIKHPAV1@@Z @1203; ?NotifyDependents@ReferenceTarget@@UAE?AW4RefResult@@VInterval@@KIKHPAV1@@Z
    ?NotifyRefChanged@EaseCurveList@@UAE?AW4RefResult@@VInterval@@PAVReferenceTarget@@AAKI@Z @1204; ?NotifyRefChanged@EaseCurveList@@UAE?AW4RefResult@@VInterval@@PAVReferenceTarget@@AAKI@Z
    ?NotifyRefChanged@GenDerivedObject@@UAE?AW4RefResult@@VInterval@@PAVReferenceTarget@@AAKI@Z @1205; ?NotifyRefChanged@GenDerivedObject@@UAE?AW4RefResult@@VInterval@@PAVReferenceTarget@@AAKI@Z
    ?NotifyRefChanged@LoftObject@@MAE?AW4RefResult@@VInterval@@PAVReferenceTarget@@AAKI@Z @1206; ?NotifyRefChanged@LoftObject@@MAE?AW4RefResult@@VInterval@@PAVReferenceTarget@@AAKI@Z
    ?NotifyRefChanged@ModApp@@UAE?AW4RefResult@@VInterval@@PAVReferenceTarget@@AAKI@Z @1207; ?NotifyRefChanged@ModApp@@UAE?AW4RefResult@@VInterval@@PAVReferenceTarget@@AAKI@Z
    ?NotifyRefChanged@MtlBaseLib@@UAE?AW4RefResult@@VInterval@@PAVReferenceTarget@@AAKI@Z @1208; ?NotifyRefChanged@MtlBaseLib@@UAE?AW4RefResult@@VInterval@@PAVReferenceTarget@@AAKI@Z
    ?NotifyRefChanged@MtlLib@@UAE?AW4RefResult@@VInterval@@PAVReferenceTarget@@AAKI@Z @1209; ?NotifyRefChanged@MtlLib@@UAE?AW4RefResult@@VInterval@@PAVReferenceTarget@@AAKI@Z
    ?NotifyRefChanged@MultCurveList@@UAE?AW4RefResult@@VInterval@@PAVReferenceTarget@@AAKI@Z @1210; ?NotifyRefChanged@MultCurveList@@UAE?AW4RefResult@@VInterval@@PAVReferenceTarget@@AAKI@Z
    ?NotifyRefChanged@ObRefModApp@@UAE?AW4RefResult@@VInterval@@PAVReferenceTarget@@AAKI@Z @1211; ?NotifyRefChanged@ObRefModApp@@UAE?AW4RefResult@@VInterval@@PAVReferenceTarget@@AAKI@Z
    ?NotifyRefChanged@SimpleMod@@UAE?AW4RefResult@@VInterval@@PAVReferenceTarget@@AAKI@Z @1212; ?NotifyRefChanged@SimpleMod@@UAE?AW4RefResult@@VInterval@@PAVReferenceTarget@@AAKI@Z
    ?NotifyRefChanged@SimpleObject@@UAE?AW4RefResult@@VInterval@@PAVReferenceTarget@@AAKI@Z @1213; ?NotifyRefChanged@SimpleObject@@UAE?AW4RefResult@@VInterval@@PAVReferenceTarget@@AAKI@Z
    ?NotifyRefChanged@SimpleParticle@@UAE?AW4RefResult@@VInterval@@PAVReferenceTarget@@AAKI@Z @1214; ?NotifyRefChanged@SimpleParticle@@UAE?AW4RefResult@@VInterval@@PAVReferenceTarget@@AAKI@Z
    ?NotifyRefChanged@SimpleShape@@UAE?AW4RefResult@@VInterval@@PAVReferenceTarget@@AAKI@Z @1215; ?NotifyRefChanged@SimpleShape@@UAE?AW4RefResult@@VInterval@@PAVReferenceTarget@@AAKI@Z
    ?NotifyRefChanged@SimpleSpline@@UAE?AW4RefResult@@VInterval@@PAVReferenceTarget@@AAKI@Z @1216; ?NotifyRefChanged@SimpleSpline@@UAE?AW4RefResult@@VInterval@@PAVReferenceTarget@@AAKI@Z
    ?NotifyRefChanged@SimpleWSMMod@@UAE?AW4RefResult@@VInterval@@PAVReferenceTarget@@AAKI@Z @1217; ?NotifyRefChanged@SimpleWSMMod@@UAE?AW4RefResult@@VInterval@@PAVReferenceTarget@@AAKI@Z
    ?NotifyRefChanged@SimpleWSMObject@@UAE?AW4RefResult@@VInterval@@PAVReferenceTarget@@AAKI@Z @1218; ?NotifyRefChanged@SimpleWSMObject@@UAE?AW4RefResult@@VInterval@@PAVReferenceTarget@@AAKI@Z
    ?NotifyRefChanged@TriObject@@MAE?AW4RefResult@@VInterval@@PAVReferenceTarget@@AAKI@Z @1219; ?NotifyRefChanged@TriObject@@MAE?AW4RefResult@@VInterval@@PAVReferenceTarget@@AAKI@Z
    ?NumEaseCurves@Control@@QAEHXZ @1220; ?NumEaseCurves@Control@@QAEHXZ
    ?NumModifiers@GenDerivedObject@@UAEHXZ @1221; ?NumModifiers@GenDerivedObject@@UAEHXZ
    ?NumMultCurves@Control@@QAEHXZ @1222; ?NumMultCurves@Control@@QAEHXZ
    ?NumNoteTracks@Animatable@@QAEHXZ @1223; ?NumNoteTracks@Animatable@@QAEHXZ
    ?NumPipeBranches@LoftObject@@UAEHXZ @1224; ?NumPipeBranches@LoftObject@@UAEHXZ
    ?NumPoints@LinearShape@@UAEHXZ @1225; ?NumPoints@LinearShape@@UAEHXZ
    ?NumPoints@PatchObject@@UAEHXZ @1226; ?NumPoints@PatchObject@@UAEHXZ
    ?NumPoints@SplineShape@@UAEHXZ @1227; ?NumPoints@SplineShape@@UAEHXZ
    ?NumRefs@Control@@UAEHXZ       @1228; ?NumRefs@Control@@UAEHXZ
    ?NumRefs@EaseCurveList@@UAEHXZ @1229; ?NumRefs@EaseCurveList@@UAEHXZ
    ?NumRefs@LoftObject@@UAEHXZ    @1230; ?NumRefs@LoftObject@@UAEHXZ
    ?NumRefs@MultCurveList@@UAEHXZ @1231; ?NumRefs@MultCurveList@@UAEHXZ
    ?NumRefs@ReferenceMaker@@UAEHXZ @1232; ?NumRefs@ReferenceMaker@@UAEHXZ
    ?NumSelKeys@DefNoteTrack@@UAEHXZ @1233; ?NumSelKeys@DefNoteTrack@@UAEHXZ
    ?NumSubs@Control@@UAEHXZ       @1234; ?NumSubs@Control@@UAEHXZ
    ?NumSubs@DerivedObject@@UAEHXZ @1235; ?NumSubs@DerivedObject@@UAEHXZ
    ?NumSubs@EaseCurveList@@UAEHXZ @1236; ?NumSubs@EaseCurveList@@UAEHXZ
    ?NumSubs@LoftObject@@UAEHXZ    @1237; ?NumSubs@LoftObject@@UAEHXZ
    ?NumSubs@MultCurveList@@UAEHXZ @1238; ?NumSubs@MultCurveList@@UAEHXZ
    ?NumSubs@WSMDerivedObject@@UAEHXZ @1239; ?NumSubs@WSMDerivedObject@@UAEHXZ
    ?Number@UVSourceDir@@QAEHXZ    @1240; ?Number@UVSourceDir@@QAEHXZ
    ?NumberOfClasses@DllDesc@@QAEHXZ @1241; ?NumberOfClasses@DllDesc@@QAEHXZ
    ?NumberOfContainedShapes@LoftObject@@UAEHXZ @1242; ?NumberOfContainedShapes@LoftObject@@UAEHXZ
    ?NumberOfCurves@LinearShape@@UAEHXZ @1243; ?NumberOfCurves@LinearShape@@UAEHXZ
    ?NumberOfCurves@SimpleShape@@UAEHXZ @1244; ?NumberOfCurves@SimpleShape@@UAEHXZ
    ?NumberOfCurves@SimpleSpline@@UAEHXZ @1245; ?NumberOfCurves@SimpleSpline@@UAEHXZ
    ?NumberOfCurves@SplineShape@@UAEHXZ @1246; ?NumberOfCurves@SplineShape@@UAEHXZ
    ?NumberOfDeformCurves@LoftObject@@QAEHH@Z @1247; ?NumberOfDeformCurves@LoftObject@@QAEHH@Z
    ?NumberOfPieces@LinearShape@@UAEHHH@Z @1248; ?NumberOfPieces@LinearShape@@UAEHHH@Z
    ?NumberOfPieces@SimpleShape@@UAEHHH@Z @1249; ?NumberOfPieces@SimpleShape@@UAEHHH@Z
    ?NumberOfPieces@SimpleSpline@@UAEHHH@Z @1250; ?NumberOfPieces@SimpleSpline@@UAEHHH@Z
    ?NumberOfPieces@SplineShape@@UAEHHH@Z @1251; ?NumberOfPieces@SplineShape@@UAEHHH@Z
    ?OKToChangeTopology@BaseObject@@UAEHAAVCStr@@@Z @1252; ?OKToChangeTopology@BaseObject@@UAEHAAVCStr@@@Z
    ?OSCopyFlag@ObjectState@@QAEXKABV1@@Z @1253; ?OSCopyFlag@ObjectState@@QAEXKABV1@@Z
    ?ObjectFromAppData@@YAPAVObject@@PAVTriObject@@PADPAXK@Z @1254; ?ObjectFromAppData@@YAPAVObject@@PAVTriObject@@PADPAXK@Z
    ?ObjectValidity@LinearShape@@UAE?AVInterval@@H@Z @1255; ?ObjectValidity@LinearShape@@UAE?AVInterval@@H@Z
    ?ObjectValidity@LoftObject@@UAE?AVInterval@@H@Z @1256; ?ObjectValidity@LoftObject@@UAE?AVInterval@@H@Z
    ?ObjectValidity@NurbsObject@@UAE?AVInterval@@H@Z @1257; ?ObjectValidity@NurbsObject@@UAE?AVInterval@@H@Z
    ?ObjectValidity@PatchObject@@UAE?AVInterval@@H@Z @1258; ?ObjectValidity@PatchObject@@UAE?AVInterval@@H@Z
    ?ObjectValidity@SimpleObject@@UAE?AVInterval@@H@Z @1259; ?ObjectValidity@SimpleObject@@UAE?AVInterval@@H@Z
    ?ObjectValidity@SimpleParticle@@UAE?AVInterval@@H@Z @1260; ?ObjectValidity@SimpleParticle@@UAE?AVInterval@@H@Z
    ?ObjectValidity@SimpleShape@@UAE?AVInterval@@H@Z @1261; ?ObjectValidity@SimpleShape@@UAE?AVInterval@@H@Z
    ?ObjectValidity@SimpleSpline@@UAE?AVInterval@@H@Z @1262; ?ObjectValidity@SimpleSpline@@UAE?AVInterval@@H@Z
    ?ObjectValidity@SimpleWSMObject@@UAE?AVInterval@@H@Z @1263; ?ObjectValidity@SimpleWSMObject@@UAE?AVInterval@@H@Z
    ?ObjectValidity@SplineShape@@UAE?AVInterval@@H@Z @1264; ?ObjectValidity@SplineShape@@UAE?AVInterval@@H@Z
    ?ObjectValidity@TriObject@@UAE?AVInterval@@H@Z @1265; ?ObjectValidity@TriObject@@UAE?AVInterval@@H@Z
    ?OpenFont@BezFontManager@@QAEHVCStr@@K@Z @1266; ?OpenFont@BezFontManager@@QAEHVCStr@@K@Z
    ?OrderSections@LoftObject@@QAEXXZ @1267; ?OrderSections@LoftObject@@QAEXXZ
    ?OrganizeCurves@BezierShape@@QAEAAVShapeHierarchy@@HPAV2@@Z @1268; ?OrganizeCurves@BezierShape@@QAEAAVShapeHierarchy@@HPAV2@@Z
    ?OrganizeCurves@LinearShape@@UAEAAVShapeHierarchy@@HPAV2@@Z @1269; ?OrganizeCurves@LinearShape@@UAEAAVShapeHierarchy@@HPAV2@@Z
    ?OrganizeCurves@PolyShape@@QAEAAVShapeHierarchy@@HPAV2@@Z @1270; ?OrganizeCurves@PolyShape@@QAEAAVShapeHierarchy@@HPAV2@@Z
    ?OrganizeCurves@SimpleShape@@UAEAAVShapeHierarchy@@HPAV2@@Z @1271; ?OrganizeCurves@SimpleShape@@UAEAAVShapeHierarchy@@HPAV2@@Z
    ?OrganizeCurves@SimpleSpline@@UAEAAVShapeHierarchy@@HPAV2@@Z @1272; ?OrganizeCurves@SimpleSpline@@UAEAAVShapeHierarchy@@HPAV2@@Z
    ?OrganizeCurves@SplineShape@@UAEAAVShapeHierarchy@@HPAV2@@Z @1273; ?OrganizeCurves@SplineShape@@UAEAAVShapeHierarchy@@HPAV2@@Z
    ?Paint@SpinnerControl@@UAEJXZ  @1274; ?Paint@SpinnerControl@@UAEJXZ
    ?PaintFCurves@Control@@UAEHPAVParamDimensionBase@@PAUHDC__@@AAVBox2@@2MHMHK@Z @1275; ?PaintFCurves@Control@@UAEHPAVParamDimensionBase@@PAUHDC__@@AAVBox2@@2MHMHK@Z
    ?PaintTrack@DefNoteTrack@@UAEHPAUHDC__@@AAVBox2@@1MHK@Z @1276; ?PaintTrack@DefNoteTrack@@UAEHPAUHDC__@@AAVBox2@@1MHK@Z
    ?Pan@MouseManager@@QAEXVIPoint2@@@Z @1277; ?Pan@MouseManager@@QAEXVIPoint2@@@Z
    ?PasteIKParams@@YAXPAVControl@@PAVIKClipObject@@H@Z @1278; ?PasteIKParams@@YAXPAVControl@@PAVIKClipObject@@H@Z
    ?PasteTrack@DefNoteTrack@@UAEXPAVTrackClipObject@@VInterval@@K@Z @1279; ?PasteTrack@DefNoteTrack@@UAEXPAVTrackClipObject@@VInterval@@K@Z
    ?PathClosed@LoftObject@@QAEHH@Z @1280; ?PathClosed@LoftObject@@QAEHH@Z
    ?PathLength@LoftObject@@QAEMH@Z @1281; ?PathLength@LoftObject@@QAEMH@Z
    ?Perm@@YAHH@Z                  @1282; ?Perm@@YAHH@Z
    ?Pieces@LoftShape@@QAEHH@Z     @1283; ?Pieces@LoftShape@@QAEHH@Z
    ?Pieces@LoftShape@@QAEHHH@Z    @1284; ?Pieces@LoftShape@@QAEHHH@Z
    ?Point3BeginIKParams@@YAXPAVControl@@PAVIObjParam@@KPAVAnimatable@@@Z @1285; ?Point3BeginIKParams@@YAXPAVControl@@PAVIObjParam@@KPAVAnimatable@@@Z
    ?PointLogicallySelected@TriObject@@QAEHH@Z @1286; ?PointLogicallySelected@TriObject@@QAEHH@Z
    ?PointsWereChanged@LinearShape@@UAEXXZ @1287; ?PointsWereChanged@LinearShape@@UAEXXZ
    ?PointsWereChanged@PatchObject@@UAEXXZ @1288; ?PointsWereChanged@PatchObject@@UAEXXZ
    ?PointsWereChanged@SplineShape@@UAEXXZ @1289; ?PointsWereChanged@SplineShape@@UAEXXZ
    ?Polys@LoftShape@@QAEHH@Z      @1290; ?Polys@LoftShape@@QAEHH@Z
    ?PostTransform@TransformModBox@@UAEXXZ @1291; ?PostTransform@TransformModBox@@UAEXXZ
    ?PostTransformHolding@TransformModBox@@UAEXXZ @1292; ?PostTransformHolding@TransformModBox@@UAEXXZ
    ?PreTransform@TransformModBox@@UAEXXZ @1293; ?PreTransform@TransformModBox@@UAEXXZ
    ?PreTransformHolding@TransformModBox@@UAEXXZ @1294; ?PreTransformHolding@TransformModBox@@UAEXXZ
    ?PrepareMesh@LoftObject@@QAEXH@Z @1295; ?PrepareMesh@LoftObject@@QAEXH@Z
    ?PrepareMesh@NurbsObject@@QAEXXZ @1296; ?PrepareMesh@NurbsObject@@QAEXXZ
    ?PrepareMesh@PatchObject@@QAEXXZ @1297; ?PrepareMesh@PatchObject@@QAEXXZ
    ?PrepareOrientations@LoftObject@@QAEHH@Z @1298; ?PrepareOrientations@LoftObject@@QAEHH@Z
    ?PreparePathCommandPanel@LoftObject@@QAEXXZ @1299; ?PreparePathCommandPanel@LoftObject@@QAEXXZ
    ?PrepareShapeCommandPanel@LoftObject@@QAEXXZ @1300; ?PrepareShapeCommandPanel@LoftObject@@QAEXXZ
    ?Prepend@Spline3D@@QAEXPAV1@@Z @1301; ?Prepend@Spline3D@@QAEXPAV1@@Z
    ?PrevShape@LoftObject@@QAEMXZ  @1302; ?PrevShape@LoftObject@@QAEMXZ
    ?PrevShapeLevel@LoftObject@@QAEMXZ @1303; ?PrevShapeLevel@LoftObject@@QAEMXZ
    ?Process@EventRouter@@QAEHXZ   @1304; ?Process@EventRouter@@QAEHXZ
    ?Process@RightClickMenuManager@@QAEXI@Z @1305; ?Process@RightClickMenuManager@@QAEXI@Z
    ?ProjectPoint@Spline3D@@QAE?AVIPoint2@@PAVViewExp@@VPoint3@@PAVMatrix3@@@Z @1306; ?ProjectPoint@Spline3D@@QAE?AVIPoint2@@PAVViewExp@@VPoint3@@PAVMatrix3@@@Z
    ?Put@Hold@@QAEXPAVRestoreObj@@@Z @1307; ?Put@Hold@@QAEXPAVRestoreObj@@@Z
    ?PutBytes@TempStore@@QAEXHPAX0@Z @1308; ?PutBytes@TempStore@@QAEXHPAX0@Z
    ?PutCrossSection@LoftObject@@QAEHAAVCStr@@HHPAVIObjParam@@@Z @1309; ?PutCrossSection@LoftObject@@QAEHAAVCStr@@HHPAVIObjParam@@@Z
    ?PutInt@TempStore@@QAEXHPAX@Z  @1310; ?PutInt@TempStore@@QAEXHPAX@Z
    ?PutPath@LoftObject@@QAEHAAVCStr@@HPAVIObjParam@@@Z @1311; ?PutPath@LoftObject@@QAEHAAVCStr@@HPAVIObjParam@@@Z
    ?PutPath@LoftObject@@QAEXXZ    @1312; ?PutPath@LoftObject@@QAEXXZ
    ?PutPoint3@TempStore@@QAEXVPoint3@@PAX@Z @1313; ?PutPoint3@TempStore@@QAEXVPoint3@@PAX@Z
    ?PutQuat@TempStore@@QAEXVQuat@@PAX@Z @1314; ?PutQuat@TempStore@@QAEXVQuat@@PAX@Z
    ?PutScaleValue@TempStore@@QAEXVScaleValue@@PAX@Z @1315; ?PutScaleValue@TempStore@@QAEXVScaleValue@@PAX@Z
    ?PutSelectedCrossSections@LoftObject@@QAEXXZ @1316; ?PutSelectedCrossSections@LoftObject@@QAEXXZ
    ?QuatBeginIKParams@@YAXPAVControl@@PAVIObjParam@@KPAVAnimatable@@@Z @1317; ?QuatBeginIKParams@@YAXPAVControl@@PAVIObjParam@@KPAVAnimatable@@@Z
    ?RButDown@SpinnerControl@@UAEJHHG@Z @1318; ?RButDown@SpinnerControl@@UAEJHHG@Z
    ?RGBtoHSV@@YA?AVColor@@V1@@Z   @1319; ?RGBtoHSV@@YA?AVColor@@V1@@Z
    ?RGBtoHSV@@YAXKPAH00@Z         @1320; ?RGBtoHSV@@YAXKPAH00@Z
    ?ReadyCachedPolyShape@BezierShape@@QAEXXZ @1321; ?ReadyCachedPolyShape@BezierShape@@QAEXXZ
    ?ReadyChannelsForMod@Object@@QAEXK@Z @1322; ?ReadyChannelsForMod@Object@@QAEXK@Z
    ?ReadyInterpParameterBlock@SimpleSpline@@QAEXXZ @1323; ?ReadyInterpParameterBlock@SimpleSpline@@QAEXXZ
    ?ReadyPatchCap@BezierShape@@QAEHXZ @1324; ?ReadyPatchCap@BezierShape@@QAEHXZ
    ?Rect3D@@YAXPAUHDC__@@AAUtagRECT@@H@Z @1325; ?Rect3D@@YAXPAUHDC__@@AAUtagRECT@@H@Z
    ?RecursInitSlotType@Texmap@@QAEXH@Z @1326; ?RecursInitSlotType@Texmap@@QAEXH@Z
    ?RedistTangents@Spline3D@@QAEXHVPoint3@@@Z @1327; ?RedistTangents@Spline3D@@QAEXHVPoint3@@@Z
    ?Redo@AppendRefRestore@@UAEXXZ @1328; ?Redo@AppendRefRestore@@UAEXXZ
    ?Redo@DecRefRestore@@UAEXXZ    @1329; ?Redo@DecRefRestore@@UAEXXZ
    ?Redo@DeletedRestore@@UAEXXZ   @1330; ?Redo@DeletedRestore@@UAEXXZ
    ?Redo@IncRefRestore@@UAEXXZ    @1331; ?Redo@IncRefRestore@@UAEXXZ
    ?Redo@InsertCrossSectionEntryRestore@@UAEXPAVLoftObject@@@Z @1332; ?Redo@InsertCrossSectionEntryRestore@@UAEXPAVLoftObject@@@Z
    ?Redo@LoftReplaceSectionRestore@@UAEXPAVLoftObject@@@Z @1333; ?Redo@LoftReplaceSectionRestore@@UAEXPAVLoftObject@@@Z
    ?Redo@LoftRestore@@UAEXXZ      @1334; ?Redo@LoftRestore@@UAEXXZ
    ?Redo@LoftShapeDupFinish@@UAEXPAVLoftObject@@@Z @1335; ?Redo@LoftShapeDupFinish@@UAEXPAVLoftObject@@@Z
    ?Redo@LoftShapeDupStart@@UAEXPAVLoftObject@@@Z @1336; ?Redo@LoftShapeDupStart@@UAEXPAVLoftObject@@@Z
    ?Redo@OrderSectionsRestore@@UAEXPAVLoftObject@@@Z @1337; ?Redo@OrderSectionsRestore@@UAEXPAVLoftObject@@@Z
    ?Redo@PathGetRecord@@UAEXPAVLoftObject@@@Z @1338; ?Redo@PathGetRecord@@UAEXPAVLoftObject@@@Z
    ?Redo@RefMgrSetRef@@UAEXXZ     @1339; ?Redo@RefMgrSetRef@@UAEXXZ
    ?Redo@SecRemoveRecord@@UAEXPAVLoftObject@@@Z @1340; ?Redo@SecRemoveRecord@@UAEXPAVLoftObject@@@Z
    ?RedrawCurves@Spline3D@@QAEXXZ @1341; ?RedrawCurves@Spline3D@@QAEXXZ
    ?ReduceCaches@GenDerivedObject@@UAEXH@Z @1342; ?ReduceCaches@GenDerivedObject@@UAEXH@Z
    ?ReduceCaches@Object@@UAEXH@Z  @1343; ?ReduceCaches@Object@@UAEXH@Z
    ?RefAdded@Mtl@@UAEXPAVReferenceMaker@@@Z @1344; ?RefAdded@Mtl@@UAEXPAVReferenceMaker@@@Z
    ?RefDeleted@Mtl@@UAEXXZ        @1345; ?RefDeleted@Mtl@@UAEXXZ
    ?ReferenceObject@ObRefModApp@@QAE?AW4RefResult@@PAVObject@@@Z @1346; ?ReferenceObject@ObRefModApp@@QAE?AW4RefResult@@PAVObject@@@Z
    ?ReferencesHaveChanged@LoftObject@@QAEXXZ @1347; ?ReferencesHaveChanged@LoftObject@@QAEXXZ
    ?Register@EventRouter@@QAEXPAVEventUser@@@Z @1348; ?Register@EventRouter@@QAEXPAVEventUser@@@Z
    ?Register@RightClickMenuManager@@QAEXPAVRightClickMenu@@@Z @1349; ?Register@RightClickMenuManager@@QAEXPAVRightClickMenu@@@Z
    ?RegisterBuiltinClasses@@YAXPAVRegBuiltinClassCallback@@@Z @1350; ?RegisterBuiltinClasses@@YAXPAVRegBuiltinClassCallback@@@Z
    ?RegisterDllDirWithCore@@YAXPAVDllDir@@@Z @1351; ?RegisterDllDirWithCore@@YAXPAVDllDir@@@Z
    ?RegisterEditTriObjDesc@@YAXPAVClassDesc@@@Z @1352; ?RegisterEditTriObjDesc@@YAXPAVClassDesc@@@Z
    ?RegisterNotification@@YAHP6AXPAXPAUNotifyInfo@@@Z0H@Z @1353; ?RegisterNotification@@YAHP6AXPAXPAUNotifyInfo@@@Z0H@Z
    ?RegisterObjectAppDataReader@@YAXPAVObjectDataReaderCallback@@@Z @1354; ?RegisterObjectAppDataReader@@YAXPAVObjectDataReaderCallback@@@Z
    ?RegisterSXPReader@@YAXPADVClass_ID@@@Z @1355; ?RegisterSXPReader@@YAXPADVClass_ID@@@Z
    ?Reinit@BezFontManager@@QAEXXZ @1356; ?Reinit@BezFontManager@@QAEXXZ
    ?Release@Hold@@QAEXXZ          @1357; ?Release@Hold@@QAEXXZ
    ?ReleaseIColorSwatch@@YAXPAVIColorSwatch@@@Z @1358; ?ReleaseIColorSwatch@@YAXPAVIColorSwatch@@@Z
    ?ReleaseICustButton@@YAXPAVICustButton@@@Z @1359; ?ReleaseICustButton@@YAXPAVICustButton@@@Z
    ?ReleaseICustEdit@@YAXPAVICustEdit@@@Z @1360; ?ReleaseICustEdit@@YAXPAVICustEdit@@@Z
    ?ReleaseICustImage@@YAXPAVICustImage@@@Z @1361; ?ReleaseICustImage@@YAXPAVICustImage@@@Z
    ?ReleaseICustStatus@@YAXPAVICustStatus@@@Z @1362; ?ReleaseICustStatus@@YAXPAVICustStatus@@@Z
    ?ReleaseICustToolbar@@YAXPAVICustToolbar@@@Z @1363; ?ReleaseICustToolbar@@YAXPAVICustToolbar@@@Z
    ?ReleaseIRollup@@YAXPAVIRollupWindow@@@Z @1364; ?ReleaseIRollup@@YAXPAVIRollupWindow@@@Z
    ?ReleaseISpinner@@YAXPAVISpinnerControl@@@Z @1365; ?ReleaseISpinner@@YAXPAVISpinnerControl@@@Z
    ?Remove@MtlBaseLib@@UAEXPAVMtlBase@@@Z @1366; ?Remove@MtlBaseLib@@UAEXPAVMtlBase@@@Z
    ?Remove@MtlLib@@UAEXPAVMtl@@@Z @1367; ?Remove@MtlLib@@UAEXPAVMtl@@@Z
    ?RemoveAppDataChunk@Animatable@@QAEHVClass_ID@@KK@Z @1368; ?RemoveAppDataChunk@Animatable@@QAEHVClass_ID@@KK@Z
    ?RemoveChunk@AnimAppData@@QAEHVClass_ID@@KK@Z @1369; ?RemoveChunk@AnimAppData@@QAEHVClass_ID@@KK@Z
    ?RemoveDuplicates@MtlBaseLib@@UAEXXZ @1370; ?RemoveDuplicates@MtlBaseLib@@UAEXXZ
    ?RemoveFromList@GenDerivedObject@@IAEXPAVGenModApp@@@Z @1371; ?RemoveFromList@GenDerivedObject@@IAEXPAVGenModApp@@@Z
    ?RemoveModifier@GenDerivedObject@@QAEPAVGenModApp@@H@Z @1372; ?RemoveModifier@GenDerivedObject@@QAEPAVGenModApp@@H@Z
    ?RemoveThumbTack@@YAXPAUHWND__@@@Z @1373; ?RemoveThumbTack@@YAXPAUHWND__@@@Z
    ?Render@BezierShape@@QAEXPAVGraphicsWindow@@PAVMaterial@@PAUtagRECT@@H@Z @1374; ?Render@BezierShape@@QAEXPAVGraphicsWindow@@PAVMaterial@@PAUtagRECT@@H@Z
    ?Render@PolyLine@@QAEXPAVGraphicsWindow@@HAAVBitArray@@@Z @1375; ?Render@PolyLine@@QAEXPAVGraphicsWindow@@HAAVBitArray@@@Z
    ?Render@PolyLine@@QAEXPAVGraphicsWindow@@PAVMaterial@@PAUtagRECT@@H@Z @1376; ?Render@PolyLine@@QAEXPAVGraphicsWindow@@PAVMaterial@@PAUtagRECT@@H@Z
    ?Render@PolyShape@@QAEXPAVGraphicsWindow@@PAVMaterial@@PAUtagRECT@@H@Z @1377; ?Render@PolyShape@@QAEXPAVGraphicsWindow@@PAVMaterial@@PAUtagRECT@@H@Z
    ?RepeatExtrapolate@@YA?AVQuat@@VInterval@@HAAV1@11@Z @1378; ?RepeatExtrapolate@@YA?AVQuat@@VInterval@@HAAV1@11@Z
    ?ReplaceModApp@GenDerivedObject@@IAEXPAVGenModApp@@H@Z @1379; ?ReplaceModApp@GenDerivedObject@@IAEXPAVGenModApp@@H@Z
    ?ReplaceReference@ReferenceMaker@@QAE?AW4RefResult@@HPAVReferenceTarget@@H@Z @1380; ?ReplaceReference@ReferenceMaker@@QAE?AW4RefResult@@HPAVReferenceTarget@@H@Z
    ?Requirements@MtlBase@@UAEKH@Z @1381; ?Requirements@MtlBase@@UAEKH@Z
    ?Reset@LoftShape@@QAEXXZ       @1382; ?Reset@LoftShape@@QAEXXZ
    ?Reset@MouseManager@@QAEXXZ    @1383; ?Reset@MouseManager@@QAEXXZ
    ?Restore@AppendRefRestore@@UAEXH@Z @1384; ?Restore@AppendRefRestore@@UAEXH@Z
    ?Restore@DecRefRestore@@UAEXH@Z @1385; ?Restore@DecRefRestore@@UAEXH@Z
    ?Restore@DeletedRestore@@UAEXH@Z @1386; ?Restore@DeletedRestore@@UAEXH@Z
    ?Restore@Hold@@QAEXXZ          @1387; ?Restore@Hold@@QAEXXZ
    ?Restore@IncRefRestore@@UAEXH@Z @1388; ?Restore@IncRefRestore@@UAEXH@Z
    ?Restore@LoftRestore@@UAEXH@Z  @1389; ?Restore@LoftRestore@@UAEXH@Z
    ?Restore@RefMgrSetRef@@UAEXH@Z @1390; ?Restore@RefMgrSetRef@@UAEXH@Z
    ?Resume@Hold@@QAEXXZ           @1391; ?Resume@Hold@@QAEXXZ
    ?ResumeAnimate@@YAXXZ          @1392; ?ResumeAnimate@@YAXXZ
    ?Reverse@BezierShape@@QAEXAAVBitArray@@@Z @1393; ?Reverse@BezierShape@@QAEXAAVBitArray@@@Z
    ?Reverse@BezierShape@@QAEXH@Z  @1394; ?Reverse@BezierShape@@QAEXH@Z
    ?Reverse@PolyLine@@QAEXH@Z     @1395; ?Reverse@PolyLine@@QAEXH@Z
    ?Reverse@PolyShape@@QAEXAAVBitArray@@H@Z @1396; ?Reverse@PolyShape@@QAEXAAVBitArray@@H@Z
    ?Reverse@PolyShape@@QAEXHH@Z   @1397; ?Reverse@PolyShape@@QAEXHH@Z
    ?Reverse@Spline3D@@QAEXXZ      @1398; ?Reverse@Spline3D@@QAEXXZ
    ?ReverseTime@DefNoteTrack@@UAEXVInterval@@K@Z @1399; ?ReverseTime@DefNoteTrack@@UAEXVInterval@@K@Z
    ?Rotate@LoftObject@@UAEXHAAVMatrix3@@0AAVQuat@@H@Z @1400; ?Rotate@LoftObject@@UAEXHAAVMatrix3@@0AAVQuat@@H@Z
    ?Rotate@SimpleMod@@UAEXHAAVMatrix3@@0AAVQuat@@H@Z @1401; ?Rotate@SimpleMod@@UAEXHAAVMatrix3@@0AAVQuat@@H@Z
    ?Save@AnimAppData@@QAE?AW4IOResult@@PAVISave@@@Z @1402; ?Save@AnimAppData@@QAE?AW4IOResult@@PAVISave@@@Z
    ?Save@AppDataChunk@@QAE?AW4IOResult@@PAVISave@@@Z @1403; ?Save@AppDataChunk@@QAE?AW4IOResult@@PAVISave@@@Z
    ?Save@BezierShape@@QAE?AW4IOResult@@PAVISave@@@Z @1404; ?Save@BezierShape@@QAE?AW4IOResult@@PAVISave@@@Z
    ?Save@CompareInfo@@QAE?AW4IOResult@@PAVISave@@@Z @1405; ?Save@CompareInfo@@QAE?AW4IOResult@@PAVISave@@@Z
    ?Save@Control@@UAE?AW4IOResult@@PAVISave@@@Z @1406; ?Save@Control@@UAE?AW4IOResult@@PAVISave@@@Z
    ?Save@CrossSection@@QAE?AW4IOResult@@PAVISave@@@Z @1407; ?Save@CrossSection@@QAE?AW4IOResult@@PAVISave@@@Z
    ?Save@DefNoteTrack@@UAE?AW4IOResult@@PAVISave@@@Z @1408; ?Save@DefNoteTrack@@UAE?AW4IOResult@@PAVISave@@@Z
    ?Save@DeformInfo@@QAE?AW4IOResult@@PAVISave@@@Z @1409; ?Save@DeformInfo@@QAE?AW4IOResult@@PAVISave@@@Z
    ?Save@DummyObject@@UAE?AW4IOResult@@PAVISave@@@Z @1410; ?Save@DummyObject@@UAE?AW4IOResult@@PAVISave@@@Z
    ?Save@EaseCurveList@@UAE?AW4IOResult@@PAVISave@@@Z @1411; ?Save@EaseCurveList@@UAE?AW4IOResult@@PAVISave@@@Z
    ?Save@GenDerivedObject@@UAE?AW4IOResult@@PAVISave@@@Z @1412; ?Save@GenDerivedObject@@UAE?AW4IOResult@@PAVISave@@@Z
    ?Save@JointParams@@QAE?AW4IOResult@@PAVISave@@@Z @1413; ?Save@JointParams@@QAE?AW4IOResult@@PAVISave@@@Z
    ?Save@LinearShape@@UAE?AW4IOResult@@PAVISave@@@Z @1414; ?Save@LinearShape@@UAE?AW4IOResult@@PAVISave@@@Z
    ?Save@LoftObject@@UAE?AW4IOResult@@PAVISave@@@Z @1415; ?Save@LoftObject@@UAE?AW4IOResult@@PAVISave@@@Z
    ?Save@LoftShape@@QAE?AW4IOResult@@PAVISave@@@Z @1416; ?Save@LoftShape@@QAE?AW4IOResult@@PAVISave@@@Z
    ?Save@ModApp@@UAE?AW4IOResult@@PAVISave@@@Z @1417; ?Save@ModApp@@UAE?AW4IOResult@@PAVISave@@@Z
    ?Save@Modifier@@UAE?AW4IOResult@@PAVISave@@@Z @1418; ?Save@Modifier@@UAE?AW4IOResult@@PAVISave@@@Z
    ?Save@MtlBase@@UAE?AW4IOResult@@PAVISave@@@Z @1419; ?Save@MtlBase@@UAE?AW4IOResult@@PAVISave@@@Z
    ?Save@MtlBaseLib@@UAE?AW4IOResult@@PAVISave@@@Z @1420; ?Save@MtlBaseLib@@UAE?AW4IOResult@@PAVISave@@@Z
    ?Save@MtlLib@@UAE?AW4IOResult@@PAVISave@@@Z @1421; ?Save@MtlLib@@UAE?AW4IOResult@@PAVISave@@@Z
    ?Save@MultCurveList@@UAE?AW4IOResult@@PAVISave@@@Z @1422; ?Save@MultCurveList@@UAE?AW4IOResult@@PAVISave@@@Z
    ?Save@NurbsObject@@UAE?AW4IOResult@@PAVISave@@@Z @1423; ?Save@NurbsObject@@UAE?AW4IOResult@@PAVISave@@@Z
    ?Save@ObRefModApp@@UAE?AW4IOResult@@PAVISave@@@Z @1424; ?Save@ObRefModApp@@UAE?AW4IOResult@@PAVISave@@@Z
    ?Save@PatchObject@@UAE?AW4IOResult@@PAVISave@@@Z @1425; ?Save@PatchObject@@UAE?AW4IOResult@@PAVISave@@@Z
    ?Save@PolyLine@@QAE?AW4IOResult@@PAVISave@@@Z @1426; ?Save@PolyLine@@QAE?AW4IOResult@@PAVISave@@@Z
    ?Save@PolyShape@@QAE?AW4IOResult@@PAVISave@@@Z @1427; ?Save@PolyShape@@QAE?AW4IOResult@@PAVISave@@@Z
    ?Save@ReferenceMaker@@UAE?AW4IOResult@@PAVISave@@@Z @1428; ?Save@ReferenceMaker@@UAE?AW4IOResult@@PAVISave@@@Z
    ?Save@ShapePSel@@QAE?AW4IOResult@@PAVISave@@@Z @1429; ?Save@ShapePSel@@QAE?AW4IOResult@@PAVISave@@@Z
    ?Save@ShapeSSel@@QAE?AW4IOResult@@PAVISave@@@Z @1430; ?Save@ShapeSSel@@QAE?AW4IOResult@@PAVISave@@@Z
    ?Save@ShapeVSel@@QAE?AW4IOResult@@PAVISave@@@Z @1431; ?Save@ShapeVSel@@QAE?AW4IOResult@@PAVISave@@@Z
    ?Save@SimpleShape@@UAE?AW4IOResult@@PAVISave@@@Z @1432; ?Save@SimpleShape@@UAE?AW4IOResult@@PAVISave@@@Z
    ?Save@SimpleSpline@@UAE?AW4IOResult@@PAVISave@@@Z @1433; ?Save@SimpleSpline@@UAE?AW4IOResult@@PAVISave@@@Z
    ?Save@Spline3D@@QAE?AW4IOResult@@PAVISave@@@Z @1434; ?Save@Spline3D@@QAE?AW4IOResult@@PAVISave@@@Z
    ?Save@SplineShape@@UAE?AW4IOResult@@PAVISave@@@Z @1435; ?Save@SplineShape@@UAE?AW4IOResult@@PAVISave@@@Z
    ?Save@TriObject@@UAE?AW4IOResult@@PAVISave@@@Z @1436; ?Save@TriObject@@UAE?AW4IOResult@@PAVISave@@@Z
    ?SaveEnum@GenDerivedObject@@UAEXAAVSaveEnumProc@@H@Z @1437; ?SaveEnum@GenDerivedObject@@UAEXAAVSaveEnumProc@@H@Z
    ?SaveEnum@ReferenceMaker@@UAEXAAVSaveEnumProc@@H@Z @1438; ?SaveEnum@ReferenceMaker@@UAEXAAVSaveEnumProc@@H@Z
    ?SaveGetRefs@GenDerivedObject@@QAEXAAV?$Tab@PAVReferenceMaker@@@@@Z @1439; ?SaveGetRefs@GenDerivedObject@@QAEXAAV?$Tab@PAVReferenceMaker@@@@@Z
    ?Scale@LoftObject@@UAEXHAAVMatrix3@@0AAVPoint3@@H@Z @1440; ?Scale@LoftObject@@UAEXHAAVMatrix3@@0AAVPoint3@@H@Z
    ?Scale@SimpleMod@@UAEXHAAVMatrix3@@0AAVPoint3@@H@Z @1441; ?Scale@SimpleMod@@UAEXHAAVMatrix3@@0AAVPoint3@@H@Z
    ?ScaleTime@DefNoteTrack@@UAEXVInterval@@M@Z @1442; ?ScaleTime@DefNoteTrack@@UAEXVInterval@@M@Z
    ?Select@BezierShape@@QAEHPAVGraphicsWindow@@PAVMaterial@@PAVHitRegion@@H@Z @1443; ?Select@BezierShape@@QAEHPAVGraphicsWindow@@PAVMaterial@@PAVHitRegion@@H@Z
    ?Select@GenControlSelectionProcessor@@MAEXPAVViewExp@@HHH@Z @1444; ?Select@GenControlSelectionProcessor@@MAEXPAVViewExp@@HHH@Z
    ?Select@GenModSelectionProcessor@@MAEXPAVViewExp@@HHH@Z @1445; ?Select@GenModSelectionProcessor@@MAEXPAVViewExp@@HHH@Z
    ?Select@LoftObject@@QAEHPAVGraphicsWindow@@HPAVMaterial@@PAVHitRegion@@H@Z @1446; ?Select@LoftObject@@QAEHPAVGraphicsWindow@@HPAVMaterial@@PAVHitRegion@@H@Z
    ?Select@LoftShape@@QAEHPAVGraphicsWindow@@HPAVMaterial@@PAVHitRegion@@H@Z @1447; ?Select@LoftShape@@QAEHPAVGraphicsWindow@@HPAVMaterial@@PAVHitRegion@@H@Z
    ?Select@PolyLine@@QAEHPAVGraphicsWindow@@PAVMaterial@@PAVHitRegion@@H@Z @1448; ?Select@PolyLine@@QAEHPAVGraphicsWindow@@PAVMaterial@@PAVHitRegion@@H@Z
    ?Select@PolyShape@@QAEHPAVGraphicsWindow@@PAVMaterial@@PAVHitRegion@@H@Z @1449; ?Select@PolyShape@@QAEHPAVGraphicsWindow@@PAVMaterial@@PAVHitRegion@@H@Z
    ?SelectKeys@DefNoteTrack@@UAEXAAV?$Tab@VTrackHitRecord@@@@K@Z @1450; ?SelectKeys@DefNoteTrack@@UAEXAAV?$Tab@VTrackHitRecord@@@@K@Z
    ?SelectSubComponent@LoftObject@@UAEXPAVHitRecord@@HHH@Z @1451; ?SelectSubComponent@LoftObject@@UAEXPAVHitRecord@@HHH@Z
    ?SelfIntersects@PolyLine@@QAEHXZ @1452; ?SelfIntersects@PolyLine@@QAEHXZ
    ?SelfIntersects@Spline3D@@QAEHXZ @1453; ?SelfIntersects@Spline3D@@QAEHXZ
    ?Set@ClassEntry@@QAEXPAVClassDesc@@HH@Z @1454; ?Set@ClassEntry@@QAEXPAVClassDesc@@HH@Z
    ?Set@ShapePSel@@QAEXH@Z        @1455; ?Set@ShapePSel@@QAEXH@Z
    ?Set@ShapePSel@@QAEXHH@Z       @1456; ?Set@ShapePSel@@QAEXHH@Z
    ?SetAdaptive@NurbsObject@@QAEXH@Z @1457; ?SetAdaptive@NurbsObject@@QAEXH@Z
    ?SetAdaptive@PatchObject@@QAEXH@Z @1458; ?SetAdaptive@PatchObject@@QAEXH@Z
    ?SetAdaptivePath@LoftObject@@QAEHH@Z @1459; ?SetAdaptivePath@LoftObject@@QAEHH@Z
    ?SetAll@ShapePSel@@QAEXXZ      @1460; ?SetAll@ShapePSel@@QAEXXZ
    ?SetAll@ShapeSSel@@QAEXXZ      @1461; ?SetAll@ShapeSSel@@QAEXXZ
    ?SetAll@ShapeVSel@@QAEXXZ      @1462; ?SetAll@ShapeVSel@@QAEXXZ
    ?SetAnimEnd@@YAXH@Z            @1463; ?SetAnimEnd@@YAXH@Z
    ?SetAnimStart@@YAXH@Z          @1464; ?SetAnimStart@@YAXH@Z
    ?SetAppDataChunk@@YAHPAPAXAAKPAX@Z @1465; ?SetAppDataChunk@@YAHPAPAXAAKPAX@Z
    ?SetBanking@LoftObject@@QAEHH@Z @1466; ?SetBanking@LoftObject@@QAEHH@Z
    ?SetBox@DummyObject@@QAEXAAVBox3@@@Z @1467; ?SetBox@DummyObject@@QAEXAAVBox3@@@Z
    ?SetCOREInterface@@YAXPAVInterface@@@Z @1468; ?SetCOREInterface@@YAXPAVInterface@@@Z
    ?SetCPInitPos@@YAXAAVIPoint2@@@Z @1469; ?SetCPInitPos@@YAXAAVIPoint2@@@Z
    ?SetCapEnd@LoftObject@@QAEHH@Z @1470; ?SetCapEnd@LoftObject@@QAEHH@Z
    ?SetCapStart@LoftObject@@QAEHH@Z @1471; ?SetCapStart@LoftObject@@QAEHH@Z
    ?SetCapType@LoftObject@@QAEHH@Z @1472; ?SetCapType@LoftObject@@QAEHH@Z
    ?SetChannelValidity@LinearShape@@UAEXHVInterval@@@Z @1473; ?SetChannelValidity@LinearShape@@UAEXHVInterval@@@Z
    ?SetChannelValidity@NurbsObject@@UAEXHVInterval@@@Z @1474; ?SetChannelValidity@NurbsObject@@UAEXHVInterval@@@Z
    ?SetChannelValidity@PatchObject@@UAEXHVInterval@@@Z @1475; ?SetChannelValidity@PatchObject@@UAEXHVInterval@@@Z
    ?SetChannelValidity@SplineShape@@UAEXHVInterval@@@Z @1476; ?SetChannelValidity@SplineShape@@UAEXHVInterval@@@Z
    ?SetChannelValidity@TriObject@@UAEXHVInterval@@@Z @1477; ?SetChannelValidity@TriObject@@UAEXHVInterval@@@Z
    ?SetCheckBox@@YAXPAUHWND__@@HH@Z @1478; ?SetCheckBox@@YAXPAUHWND__@@HH@Z
    ?SetClosed@Spline3D@@QAEHH@Z   @1479; ?SetClosed@Spline3D@@QAEHH@Z
    ?SetClosures@BezierShape@@QAEXAAVBitArray@@@Z @1480; ?SetClosures@BezierShape@@QAEXAAVBitArray@@@Z
    ?SetColor@DummyObject@@QAEXVPoint3@@@Z @1481; ?SetColor@DummyObject@@QAEXVPoint3@@@Z
    ?SetContour@LoftObject@@QAEHH@Z @1482; ?SetContour@LoftObject@@QAEHH@Z
    ?SetCrossSectionRef@LoftObject@@QAEHHPAVObject@@MPAVMatrix3@@HH@Z @1483; ?SetCrossSectionRef@LoftObject@@QAEHHPAVObject@@MPAVMatrix3@@HH@Z
    ?SetCrossSectionShape@LoftObject@@QAEHPAVObject@@MPAVMatrix3@@H@Z @1484; ?SetCrossSectionShape@LoftObject@@QAEHPAVObject@@MPAVMatrix3@@H@Z
    ?SetCurObjectCount@@YAXH@Z     @1485; ?SetCurObjectCount@@YAXH@Z
    ?SetDefaultBoolController@@YAXPAVClassDesc@@@Z @1486; ?SetDefaultBoolController@@YAXPAVClassDesc@@@Z
    ?SetDefaultColorController@@YAXPAVClassDesc@@@Z @1487; ?SetDefaultColorController@@YAXPAVClassDesc@@@Z
    ?SetDefaultController@@YAXKPAVClassDesc@@@Z @1488; ?SetDefaultController@@YAXKPAVClassDesc@@@Z
    ?SetDispFlag@BezierShape@@QAEXK@Z @1489; ?SetDispFlag@BezierShape@@QAEXK@Z
    ?SetDisplayGamma@GammaMgr@@QAEXM@Z @1490; ?SetDisplayGamma@GammaMgr@@QAEXM@Z
    ?SetDlgFont@@YAXPAUHWND__@@PAUHFONT__@@@Z @1491; ?SetDlgFont@@YAXPAUHWND__@@PAUHFONT__@@@Z
    ?SetDlgItemFloat@@YAHPAUHWND__@@HM@Z @1492; ?SetDlgItemFloat@@YAHPAUHWND__@@HM@Z
    ?SetDragMode@MouseManager@@QAEHH@Z @1493; ?SetDragMode@MouseManager@@QAEHH@Z
    ?SetFileInGamma@GammaMgr@@QAEXM@Z @1494; ?SetFileInGamma@GammaMgr@@QAEXM@Z
    ?SetFileOutGamma@GammaMgr@@QAEXM@Z @1495; ?SetFileOutGamma@GammaMgr@@QAEXM@Z
    ?SetFitSize@LoftObject@@QAEXM@Z @1496; ?SetFitSize@LoftObject@@QAEXM@Z
    ?SetFrameRate@@YAXH@Z          @1497; ?SetFrameRate@@YAXH@Z
    ?SetIdentityTM@ObjectState@@QAEXXZ @1498; ?SetIdentityTM@ObjectState@@QAEXXZ
    ?SetInputModApp@ModApp@@UAEXPAVGenModApp@@@Z @1499; ?SetInputModApp@ModApp@@UAEXPAVGenModApp@@@Z
    ?SetInterface@BezFontManager@@QAEXPAVFontMgrInterface@@@Z @1500; ?SetInterface@BezFontManager@@QAEXPAVFontMgrInterface@@@Z
    ?SetInverse@LoftObject@@QAEHH@Z @1501; ?SetInverse@LoftObject@@QAEHH@Z
    ?SetKnotType@Spline3D@@QAEHHH@Z @1502; ?SetKnotType@Spline3D@@QAEHHH@Z
    ?SetLevel@CrossSection@@QAEXM@Z @1503; ?SetLevel@CrossSection@@QAEXM@Z
    ?SetLevel@LoftObject@@QAEXMH@Z @1504; ?SetLevel@LoftObject@@QAEXMH@Z
    ?SetLimits@SpinnerControl@@QAEXHHH@Z @1505; ?SetLimits@SpinnerControl@@QAEXHHH@Z
    ?SetLimits@SpinnerControl@@QAEXMMH@Z @1506; ?SetLimits@SpinnerControl@@QAEXMMH@Z
    ?SetLineType@Spline3D@@QAEHHH@Z @1507; ?SetLineType@Spline3D@@QAEHHH@Z
    ?SetLinearInterpolation@LoftObject@@QAEHH@Z @1508; ?SetLinearInterpolation@LoftObject@@QAEHH@Z
    ?SetLoadingMtlBaseLib@@YAXPAVMtlBaseLib@@@Z @1509; ?SetLoadingMtlBaseLib@@YAXPAVMtlBaseLib@@@Z
    ?SetLoadingMtlLib@@YAXPAVMtlLib@@@Z @1510; ?SetLoadingMtlLib@@YAXPAVMtlLib@@@Z
    ?SetLockFailureLevel@@YAXH@Z   @1511; ?SetLockFailureLevel@@YAXH@Z
    ?SetMapLengthRepeat@LoftObject@@QAEHM@Z @1512; ?SetMapLengthRepeat@LoftObject@@QAEHM@Z
    ?SetMapPerimeterRepeat@LoftObject@@QAEHM@Z @1513; ?SetMapPerimeterRepeat@LoftObject@@QAEHM@Z
    ?SetMapping@LoftObject@@QAEHH@Z @1514; ?SetMapping@LoftObject@@QAEHH@Z
    ?SetMasterUnitInfo@@YAHHM@Z    @1515; ?SetMasterUnitInfo@@YAHHM@Z
    ?SetMeshSteps@NurbsObject@@QAEXH@Z @1516; ?SetMeshSteps@NurbsObject@@QAEXH@Z
    ?SetMeshSteps@PatchObject@@QAEXH@Z @1517; ?SetMeshSteps@PatchObject@@QAEXH@Z
    ?SetModifier@GenDerivedObject@@UAEXHPAVModifier@@@Z @1518; ?SetModifier@GenDerivedObject@@UAEXHPAVModifier@@@Z
    ?SetModifier@ModApp@@UAEXPAVModifier@@@Z @1519; ?SetModifier@ModApp@@UAEXPAVModifier@@@Z
    ?SetMouse@Transformer@@QAEXAAVIPoint2@@@Z @1520; ?SetMouse@Transformer@@QAEXAAVIPoint2@@@Z
    ?SetMouseProc@MouseManager@@QAEHPAVMouseCallBack@@HH@Z @1521; ?SetMouseProc@MouseManager@@QAEHPAVMouseCallBack@@HH@Z
    ?SetMoveModeType@@YAXH@Z       @1522; ?SetMoveModeType@@YAXH@Z
    ?SetName@Modifier@@UAEXVCStr@@@Z @1523; ?SetName@Modifier@@UAEXVCStr@@@Z
    ?SetName@MtlBase@@QAEXVCStr@@@Z @1524; ?SetName@MtlBase@@QAEXVCStr@@@Z
    ?SetNormalize@LoftObject@@QAEHH@Z @1525; ?SetNormalize@LoftObject@@QAEHH@Z
    ?SetNumLines@PolyShape@@QAEHHH@Z @1526; ?SetNumLines@PolyShape@@QAEHHH@Z
    ?SetNumPoints@MouseManager@@QAEHHH@Z @1527; ?SetNumPoints@MouseManager@@QAEHHH@Z
    ?SetNumPts@PolyLine@@QAEHHH@Z  @1528; ?SetNumPts@PolyLine@@QAEHHH@Z
    ?SetNumRefs@LoftObject@@QAEXH@Z @1529; ?SetNumRefs@LoftObject@@QAEXH@Z
    ?SetORT@Control@@UAEXHH@Z      @1530; ?SetORT@Control@@UAEXHH@Z
    ?SetObjOffsetScale@INodeTransformed@@UAEXVScaleValue@@@Z @1531; ?SetObjOffsetScale@INodeTransformed@@UAEXVScaleValue@@@Z
    ?SetOpen@Spline3D@@QAEHXZ      @1532; ?SetOpen@Spline3D@@QAEHXZ
    ?SetOptimizeShapes@LoftObject@@QAEHH@Z @1533; ?SetOptimizeShapes@LoftObject@@QAEHH@Z
    ?SetPSteps@LoftObject@@QAEXH@Z @1534; ?SetPSteps@LoftObject@@QAEXH@Z
    ?SetParam@Spline3D@@QAEHHM@Z   @1535; ?SetParam@Spline3D@@QAEHHM@Z
    ?SetPathModMatrix@LoftObject@@QAEXAAVMatrix3@@@Z @1536; ?SetPathModMatrix@LoftObject@@QAEXAAVMatrix3@@@Z
    ?SetPathRef@LoftObject@@QAEHHPAVObject@@@Z @1537; ?SetPathRef@LoftObject@@QAEHHPAVObject@@@Z
    ?SetPathShape@LoftObject@@QAEHPAVObject@@@Z @1538; ?SetPathShape@LoftObject@@QAEHPAVObject@@@Z
    ?SetPerspMouseSpeed@@YAXM@Z    @1539; ?SetPerspMouseSpeed@@YAXM@Z
    ?SetPoint@LinearShape@@UAEXHABVPoint3@@@Z @1540; ?SetPoint@LinearShape@@UAEXHABVPoint3@@@Z
    ?SetPoint@PatchObject@@UAEXHABVPoint3@@@Z @1541; ?SetPoint@PatchObject@@UAEXHABVPoint3@@@Z
    ?SetPoint@SplineShape@@UAEXHABVPoint3@@@Z @1542; ?SetPoint@SplineShape@@UAEXHABVPoint3@@@Z
    ?SetPointFlags@LinearShape@@QAEXXZ @1543; ?SetPointFlags@LinearShape@@QAEXXZ
    ?SetReference@Control@@UAEXHPAVReferenceTarget@@@Z @1544; ?SetReference@Control@@UAEXHPAVReferenceTarget@@@Z
    ?SetReference@EaseCurveList@@UAEXHPAVReferenceTarget@@@Z @1545; ?SetReference@EaseCurveList@@UAEXHPAVReferenceTarget@@@Z
    ?SetReference@LoftObject@@UAEXHPAVReferenceTarget@@@Z @1546; ?SetReference@LoftObject@@UAEXHPAVReferenceTarget@@@Z
    ?SetReference@ModApp@@UAEXHPAVReferenceTarget@@@Z @1547; ?SetReference@ModApp@@UAEXHPAVReferenceTarget@@@Z
    ?SetReference@MtlBaseLib@@UAEXHPAVReferenceTarget@@@Z @1548; ?SetReference@MtlBaseLib@@UAEXHPAVReferenceTarget@@@Z
    ?SetReference@MtlLib@@UAEXHPAVReferenceTarget@@@Z @1549; ?SetReference@MtlLib@@UAEXHPAVReferenceTarget@@@Z
    ?SetReference@MultCurveList@@UAEXHPAVReferenceTarget@@@Z @1550; ?SetReference@MultCurveList@@UAEXHPAVReferenceTarget@@@Z
    ?SetReference@ReferenceMaker@@UAEXHPAVReferenceTarget@@@Z @1551; ?SetReference@ReferenceMaker@@UAEXHPAVReferenceTarget@@@Z
    ?SetReference@SimpleMod@@UAEXHPAVReferenceTarget@@@Z @1552; ?SetReference@SimpleMod@@UAEXHPAVReferenceTarget@@@Z
    ?SetReference@SimpleSpline@@UAEXHPAVReferenceTarget@@@Z @1553; ?SetReference@SimpleSpline@@UAEXHPAVReferenceTarget@@@Z
    ?SetReference@SimpleWSMMod@@UAEXHPAVReferenceTarget@@@Z @1554; ?SetReference@SimpleWSMMod@@UAEXHPAVReferenceTarget@@@Z
    ?SetSSteps@LoftObject@@QAEXH@Z @1555; ?SetSSteps@LoftObject@@QAEXH@Z
    ?SetSaveRequired@@YAXH@Z       @1556; ?SetSaveRequired@@YAXH@Z
    ?SetSectionLevel@LoftObject@@QAEXHM@Z @1557; ?SetSectionLevel@LoftObject@@QAEXHM@Z
    ?SetSectionModMatrix@LoftObject@@QAEXHAAVMatrix3@@@Z @1558; ?SetSectionModMatrix@LoftObject@@QAEXHAAVMatrix3@@@Z
    ?SetSelKeyCoords@DefNoteTrack@@UAEXHMK@Z @1559; ?SetSelKeyCoords@DefNoteTrack@@UAEXHMK@Z
    ?SetShapeByRef@LoftObject@@QAEXHPAVObject@@@Z @1560; ?SetShapeByRef@LoftObject@@QAEXHPAVObject@@@Z
    ?SetShowLattice@PatchObject@@QAEXH@Z @1561; ?SetShowLattice@PatchObject@@QAEXH@Z
    ?SetShowVerts@PatchObject@@QAEXH@Z @1562; ?SetShowVerts@PatchObject@@QAEXH@Z
    ?SetSize@ShapePSel@@QAEXAAVBezierShape@@@Z @1563; ?SetSize@ShapePSel@@QAEXAAVBezierShape@@@Z
    ?SetSize@ShapePSel@@QAEXAAVPolyShape@@@Z @1564; ?SetSize@ShapePSel@@QAEXAAVPolyShape@@@Z
    ?SetSize@ShapeSSel@@QAEXAAVBezierShape@@@Z @1565; ?SetSize@ShapeSSel@@QAEXAAVBezierShape@@@Z
    ?SetSize@ShapeSSel@@QAEXAAVPolyShape@@@Z @1566; ?SetSize@ShapeSSel@@QAEXAAVPolyShape@@@Z
    ?SetSize@ShapeVSel@@QAEXAAVBezierShape@@@Z @1567; ?SetSize@ShapeVSel@@QAEXAAVBezierShape@@@Z
    ?SetSize@ShapeVSel@@QAEXAAVPolyShape@@@Z @1568; ?SetSize@ShapeVSel@@QAEXAAVPolyShape@@@Z
    ?SetSkin@LoftObject@@QAEHH@Z   @1569; ?SetSkin@LoftObject@@QAEHH@Z
    ?SetSkinShaded@LoftObject@@QAEHH@Z @1570; ?SetSkinShaded@LoftObject@@QAEHH@Z
    ?SetSmoothLength@LoftObject@@QAEHH@Z @1571; ?SetSmoothLength@LoftObject@@QAEHH@Z
    ?SetSmoothPerimeter@LoftObject@@QAEHH@Z @1572; ?SetSmoothPerimeter@LoftObject@@QAEHH@Z
    ?SetSnapSpinValue@@YAXM@Z      @1573; ?SetSnapSpinValue@@YAXM@Z
    ?SetSnapSpinner@@YAXH@Z        @1574; ?SetSnapSpinner@@YAXH@Z
    ?SetSpinnerPrecision@@YAXH@Z   @1575; ?SetSpinnerPrecision@@YAXH@Z
    ?SetSubSelState@TriObject@@UAEXK@Z @1576; ?SetSubSelState@TriObject@@UAEXK@Z
    ?SetTM@ObRefModApp@@QAEXPAVMatrix3@@VInterval@@@Z @1577; ?SetTM@ObRefModApp@@QAEXPAVMatrix3@@VInterval@@@Z
    ?SetTM@ObjectState@@QAEXPAVMatrix3@@VInterval@@@Z @1578; ?SetTM@ObjectState@@QAEXPAVMatrix3@@VInterval@@@Z
    ?SetTicksPerFrame@@YAXH@Z      @1579; ?SetTicksPerFrame@@YAXH@Z
    ?SetTimeDisplayMode@@YAXW4TimeDisp@@@Z @1580; ?SetTimeDisplayMode@@YAXW4TimeDisp@@@Z
    ?SetUnitDisplayInfo@@YAHPAUDispInfo@@@Z @1581; ?SetUnitDisplayInfo@@YAHPAUDispInfo@@@Z
    ?SetUnitDisplayType@@YAHH@Z    @1582; ?SetUnitDisplayType@@YAHH@Z
    ?SetUseBevel@LoftObject@@QAEHH@Z @1583; ?SetUseBevel@LoftObject@@QAEHH@Z
    ?SetUseFit@LoftObject@@QAEHH@Z @1584; ?SetUseFit@LoftObject@@QAEHH@Z
    ?SetUseScale@LoftObject@@QAEHH@Z @1585; ?SetUseScale@LoftObject@@QAEHH@Z
    ?SetUseTeeter@LoftObject@@QAEHH@Z @1586; ?SetUseTeeter@LoftObject@@QAEHH@Z
    ?SetUseTwist@LoftObject@@QAEHH@Z @1587; ?SetUseTwist@LoftObject@@QAEHH@Z
    ?SetValue@SpinnerControl@@QAEXHH@Z @1588; ?SetValue@SpinnerControl@@QAEXHH@Z
    ?SetValue@SpinnerControl@@QAEXMH@Z @1589; ?SetValue@SpinnerControl@@QAEXMH@Z
    ?SetValue@StdControl@@UAEXHPAXHW4GetSetMethod@@@Z @1590; ?SetValue@StdControl@@UAEXHPAXHW4GetSetMethod@@@Z
    ?SetVec@PatchCapPoly@@QAEXHH@Z @1591; ?SetVec@PatchCapPoly@@QAEXHH@Z
    ?SetVert@BezierShape@@QAEXHHABVPoint3@@@Z @1592; ?SetVert@BezierShape@@QAEXHHABVPoint3@@@Z
    ?SetVert@MeshCapPoly@@QAEXHH@Z @1593; ?SetVert@MeshCapPoly@@QAEXHH@Z
    ?SetVert@PatchCapPoly@@QAEXHH@Z @1594; ?SetVert@PatchCapPoly@@QAEXHH@Z
    ?SetWindowTextFloat@@YAHPAUHWND__@@MH@Z @1595; ?SetWindowTextFloat@@YAHPAUHWND__@@MH@Z
    ?SetWindowTextInt@@YAHPAUHWND__@@H@Z @1596; ?SetWindowTextInt@@YAHPAUHWND__@@H@Z
    ?SetupFloatSpinner@@YAPAVISpinnerControl@@PAUHWND__@@HHMMMM@Z @1597; ?SetupFloatSpinner@@YAPAVISpinnerControl@@PAUHWND__@@HHMMMM@Z
    ?SetupIntSpinner@@YAPAVISpinnerControl@@PAUHWND__@@HHHHH@Z @1598; ?SetupIntSpinner@@YAPAVISpinnerControl@@PAUHWND__@@HHHHH@Z
    ?ShadedHorizLine@@YAXPAUHDC__@@HHHH@Z @1599; ?ShadedHorizLine@@YAXPAUHDC__@@HHHH@Z
    ?ShadedRect@@YAXPAUHDC__@@AAUtagRECT@@@Z @1600; ?ShadedRect@@YAXPAUHDC__@@AAUtagRECT@@@Z
    ?ShadedVertLine@@YAXPAUHDC__@@HHHH@Z @1601; ?ShadedVertLine@@YAXPAUHDC__@@HHHH@Z
    ?ShallowCopy@BezierShape@@QAEXPAV1@K@Z @1602; ?ShallowCopy@BezierShape@@QAEXPAV1@K@Z
    ?ShallowCopy@LinearShape@@UAEXPAVObject@@K@Z @1603; ?ShallowCopy@LinearShape@@UAEXPAVObject@@K@Z
    ?ShallowCopy@NurbsObject@@UAEXPAVObject@@K@Z @1604; ?ShallowCopy@NurbsObject@@UAEXPAVObject@@K@Z
    ?ShallowCopy@PatchObject@@UAEXPAVObject@@K@Z @1605; ?ShallowCopy@PatchObject@@UAEXPAVObject@@K@Z
    ?ShallowCopy@PolyShape@@QAEXPAV1@K@Z @1606; ?ShallowCopy@PolyShape@@QAEXPAV1@K@Z
    ?ShallowCopy@SplineShape@@UAEXPAVObject@@K@Z @1607; ?ShallowCopy@SplineShape@@UAEXPAVObject@@K@Z
    ?ShallowCopy@TriObject@@UAEXPAVObject@@K@Z @1608; ?ShallowCopy@TriObject@@UAEXPAVObject@@K@Z
    ?ShiftKnot@Spline3D@@QAEHHH@Z  @1609; ?ShiftKnot@Spline3D@@QAEHHH@Z
    ?ShowLattice@PatchObject@@QAEHXZ @1610; ?ShowLattice@PatchObject@@QAEHXZ
    ?ShowVerts@PatchObject@@QAEHXZ @1611; ?ShowVerts@PatchObject@@QAEHXZ
    ?SimpleModClone@SimpleMod@@QAEXPAV1@@Z @1612; ?SimpleModClone@SimpleMod@@QAEXPAV1@@Z
    ?SimpleSplineClone@SimpleSpline@@QAEXPAV1@@Z @1613; ?SimpleSplineClone@SimpleSpline@@QAEXPAV1@@Z
    ?SimpleWSMModClone@SimpleWSMMod@@QAEXPAV1@@Z @1614; ?SimpleWSMModClone@SimpleWSMMod@@QAEXPAV1@@Z
    ?SlideWindow@@YAXPAUHWND__@@HH@Z @1615; ?SlideWindow@@YAXPAUHWND__@@HH@Z
    ?Snap@BezierShape@@QAEXPAVGraphicsWindow@@PAUSnapInfo@@PAVIPoint2@@AAVMatrix3@@@Z @1616; ?Snap@BezierShape@@QAEXPAVGraphicsWindow@@PAUSnapInfo@@PAVIPoint2@@AAVMatrix3@@@Z
    ?Snap@BezierShape@@QAEXPAVGraphicsWindow@@PAUSnapInfo@@PAVIPoint2@@AAVMatrix3@@K@Z @1617; ?Snap@BezierShape@@QAEXPAVGraphicsWindow@@PAUSnapInfo@@PAVIPoint2@@AAVMatrix3@@K@Z
    ?Snap@DummyObject@@UAEXHPAVINode@@PAUSnapInfo@@PAVIPoint2@@PAVViewExp@@@Z @1618; ?Snap@DummyObject@@UAEXHPAVINode@@PAUSnapInfo@@PAVIPoint2@@PAVViewExp@@@Z
    ?Snap@GenDerivedObject@@UAEXHPAVINode@@PAUSnapInfo@@PAVIPoint2@@PAVViewExp@@@Z @1619; ?Snap@GenDerivedObject@@UAEXHPAVINode@@PAUSnapInfo@@PAVIPoint2@@PAVViewExp@@@Z
    ?Snap@LinearShape@@UAEXHPAVINode@@PAUSnapInfo@@PAVIPoint2@@PAVViewExp@@@Z @1620; ?Snap@LinearShape@@UAEXHPAVINode@@PAUSnapInfo@@PAVIPoint2@@PAVViewExp@@@Z
    ?Snap@LoftObject@@UAEXHPAVINode@@PAUSnapInfo@@PAVIPoint2@@PAVViewExp@@@Z @1621; ?Snap@LoftObject@@UAEXHPAVINode@@PAUSnapInfo@@PAVIPoint2@@PAVViewExp@@@Z
    ?Snap@NurbsObject@@UAEXHPAVINode@@PAUSnapInfo@@PAVIPoint2@@PAVViewExp@@@Z @1622; ?Snap@NurbsObject@@UAEXHPAVINode@@PAUSnapInfo@@PAVIPoint2@@PAVViewExp@@@Z
    ?Snap@PatchObject@@UAEXHPAVINode@@PAUSnapInfo@@PAVIPoint2@@PAVViewExp@@@Z @1623; ?Snap@PatchObject@@UAEXHPAVINode@@PAUSnapInfo@@PAVIPoint2@@PAVViewExp@@@Z
    ?Snap@PolyLine@@QAEXPAVGraphicsWindow@@PAUSnapInfo@@PAVIPoint2@@AAVMatrix3@@K@Z @1624; ?Snap@PolyLine@@QAEXPAVGraphicsWindow@@PAUSnapInfo@@PAVIPoint2@@AAVMatrix3@@K@Z
    ?Snap@PolyShape@@QAEXPAVGraphicsWindow@@PAUSnapInfo@@PAVIPoint2@@AAVMatrix3@@@Z @1625; ?Snap@PolyShape@@QAEXPAVGraphicsWindow@@PAUSnapInfo@@PAVIPoint2@@AAVMatrix3@@@Z
    ?Snap@PolyShape@@QAEXPAVGraphicsWindow@@PAUSnapInfo@@PAVIPoint2@@AAVMatrix3@@K@Z @1626; ?Snap@PolyShape@@QAEXPAVGraphicsWindow@@PAUSnapInfo@@PAVIPoint2@@AAVMatrix3@@K@Z
    ?Snap@SimpleObject@@UAEXHPAVINode@@PAUSnapInfo@@PAVIPoint2@@PAVViewExp@@@Z @1627; ?Snap@SimpleObject@@UAEXHPAVINode@@PAUSnapInfo@@PAVIPoint2@@PAVViewExp@@@Z
    ?Snap@SimpleShape@@UAEXHPAVINode@@PAUSnapInfo@@PAVIPoint2@@PAVViewExp@@@Z @1628; ?Snap@SimpleShape@@UAEXHPAVINode@@PAUSnapInfo@@PAVIPoint2@@PAVViewExp@@@Z
    ?Snap@SimpleSpline@@UAEXHPAVINode@@PAUSnapInfo@@PAVIPoint2@@PAVViewExp@@@Z @1629; ?Snap@SimpleSpline@@UAEXHPAVINode@@PAUSnapInfo@@PAVIPoint2@@PAVViewExp@@@Z
    ?Snap@SimpleWSMObject@@UAEXHPAVINode@@PAUSnapInfo@@PAVIPoint2@@PAVViewExp@@@Z @1630; ?Snap@SimpleWSMObject@@UAEXHPAVINode@@PAUSnapInfo@@PAVIPoint2@@PAVViewExp@@@Z
    ?Snap@Spline3D@@QAEXPAVGraphicsWindow@@PAUSnapInfo@@PAVIPoint2@@AAVMatrix3@@@Z @1631; ?Snap@Spline3D@@QAEXPAVGraphicsWindow@@PAUSnapInfo@@PAVIPoint2@@AAVMatrix3@@@Z
    ?Snap@SplineShape@@UAEXHPAVINode@@PAUSnapInfo@@PAVIPoint2@@PAVViewExp@@@Z @1632; ?Snap@SplineShape@@UAEXHPAVINode@@PAUSnapInfo@@PAVIPoint2@@PAVViewExp@@@Z
    ?Snap@TriObject@@UAEXHPAVINode@@PAUSnapInfo@@PAVIPoint2@@PAVViewExp@@@Z @1633; ?Snap@TriObject@@UAEXHPAVINode@@PAUSnapInfo@@PAVIPoint2@@PAVViewExp@@@Z
    ?SourceNumFromID@UVSourceDir@@QAEHK@Z @1634; ?SourceNumFromID@UVSourceDir@@QAEHK@Z
    ?SpectralDecomp@@YAXVMatrix3@@AAVPoint3@@AAVQuat@@@Z @1635; ?SpectralDecomp@@YAXVMatrix3@@AAVPoint3@@AAVQuat@@@Z
    ?SpinnerChange@JointParams@@UAEXPAVInterpCtrlUI@@GPAVISpinnerControl@@H@Z @1636; ?SpinnerChange@JointParams@@UAEXPAVInterpCtrlUI@@GPAVISpinnerControl@@H@Z
    ?SpinnerDown@JointParams@@QAEXPAVInterpCtrlUI@@GPAVISpinnerControl@@@Z @1637; ?SpinnerDown@JointParams@@QAEXPAVInterpCtrlUI@@GPAVISpinnerControl@@@Z
    ?SpinnerUp@JointParams@@QAEXPAVInterpCtrlUI@@GPAVISpinnerControl@@H@Z @1638; ?SpinnerUp@JointParams@@QAEXPAVInterpCtrlUI@@GPAVISpinnerControl@@H@Z
    ?SpliceLine@PolyLine@@QAEXHAAV1@H@Z @1639; ?SpliceLine@PolyLine@@QAEXHAAV1@H@Z
    ?SplineLength@Spline3D@@QAEMXZ @1640; ?SplineLength@Spline3D@@QAEMXZ
    ?StartInsert@Spline3D@@QAEHPAVViewExp@@HHHVIPoint2@@PAVMatrix3@@H@Z @1641; ?StartInsert@Spline3D@@QAEHPAVViewExp@@HHHVIPoint2@@PAVMatrix3@@H@Z
    ?StdNotifyRefChanged@ReferenceMaker@@IAE?AW4RefResult@@VInterval@@PAVReferenceTarget@@KIH@Z @1642; ?StdNotifyRefChanged@ReferenceMaker@@IAE?AW4RefResult@@VInterval@@PAVReferenceTarget@@KIH@Z
    ?StretchWindow@@YAXPAUHWND__@@HH@Z @1643; ?StretchWindow@@YAXPAUHWND__@@HH@Z
    ?StringToTime@@YAHVCStr@@AAH@Z @1644; ?StringToTime@@YAHVCStr@@AAH@Z
    ?StripTrailingZeros@@YAXPAD@Z  @1645; ?StripTrailingZeros@@YAXPAD@Z
    ?SubAnim@Control@@UAEPAVAnimatable@@H@Z @1646; ?SubAnim@Control@@UAEPAVAnimatable@@H@Z
    ?SubAnim@DerivedObject@@UAEPAVAnimatable@@H@Z @1647; ?SubAnim@DerivedObject@@UAEPAVAnimatable@@H@Z
    ?SubAnim@EaseCurveList@@UAEPAVAnimatable@@H@Z @1648; ?SubAnim@EaseCurveList@@UAEPAVAnimatable@@H@Z
    ?SubAnim@LoftObject@@UAEPAVAnimatable@@H@Z @1649; ?SubAnim@LoftObject@@UAEPAVAnimatable@@H@Z
    ?SubAnim@MultCurveList@@UAEPAVAnimatable@@H@Z @1650; ?SubAnim@MultCurveList@@UAEPAVAnimatable@@H@Z
    ?SubAnim@SimpleMod@@UAEPAVAnimatable@@H@Z @1651; ?SubAnim@SimpleMod@@UAEPAVAnimatable@@H@Z
    ?SubAnim@SimpleSpline@@UAEPAVAnimatable@@H@Z @1652; ?SubAnim@SimpleSpline@@UAEPAVAnimatable@@H@Z
    ?SubAnim@SimpleWSMMod@@UAEPAVAnimatable@@H@Z @1653; ?SubAnim@SimpleWSMMod@@UAEPAVAnimatable@@H@Z
    ?SubAnim@WSMDerivedObject@@UAEPAVAnimatable@@H@Z @1654; ?SubAnim@WSMDerivedObject@@UAEPAVAnimatable@@H@Z
    ?SubAnimName@Animatable@@UAE?AVCStr@@H@Z @1655; ?SubAnimName@Animatable@@UAE?AVCStr@@H@Z
    ?SubAnimName@Control@@UAE?AVCStr@@H@Z @1656; ?SubAnimName@Control@@UAE?AVCStr@@H@Z
    ?SubAnimName@DerivedObject@@UAE?AVCStr@@H@Z @1657; ?SubAnimName@DerivedObject@@UAE?AVCStr@@H@Z
    ?SubAnimName@EaseCurveList@@UAE?AVCStr@@H@Z @1658; ?SubAnimName@EaseCurveList@@UAE?AVCStr@@H@Z
    ?SubAnimName@LoftObject@@UAE?AVCStr@@H@Z @1659; ?SubAnimName@LoftObject@@UAE?AVCStr@@H@Z
    ?SubAnimName@MtlBaseLib@@UAE?AVCStr@@H@Z @1660; ?SubAnimName@MtlBaseLib@@UAE?AVCStr@@H@Z
    ?SubAnimName@MtlLib@@UAE?AVCStr@@H@Z @1661; ?SubAnimName@MtlLib@@UAE?AVCStr@@H@Z
    ?SubAnimName@MultCurveList@@UAE?AVCStr@@H@Z @1662; ?SubAnimName@MultCurveList@@UAE?AVCStr@@H@Z
    ?SubAnimName@SimpleMod@@UAE?AVCStr@@H@Z @1663; ?SubAnimName@SimpleMod@@UAE?AVCStr@@H@Z
    ?SubAnimName@SimpleObject@@UAE?AVCStr@@H@Z @1664; ?SubAnimName@SimpleObject@@UAE?AVCStr@@H@Z
    ?SubAnimName@SimpleParticle@@UAE?AVCStr@@H@Z @1665; ?SubAnimName@SimpleParticle@@UAE?AVCStr@@H@Z
    ?SubAnimName@SimpleShape@@UAE?AVCStr@@H@Z @1666; ?SubAnimName@SimpleShape@@UAE?AVCStr@@H@Z
    ?SubAnimName@SimpleSpline@@UAE?AVCStr@@H@Z @1667; ?SubAnimName@SimpleSpline@@UAE?AVCStr@@H@Z
    ?SubAnimName@SimpleWSMMod@@UAE?AVCStr@@H@Z @1668; ?SubAnimName@SimpleWSMMod@@UAE?AVCStr@@H@Z
    ?SubAnimName@SimpleWSMObject@@UAE?AVCStr@@H@Z @1669; ?SubAnimName@SimpleWSMObject@@UAE?AVCStr@@H@Z
    ?SubAnimName@WSMDerivedObject@@UAE?AVCStr@@H@Z @1670; ?SubAnimName@WSMDerivedObject@@UAE?AVCStr@@H@Z
    ?SubObjectHitTest@BezierShape@@QAEHPAVGraphicsWindow@@PAVMaterial@@PAVHitRegion@@KAAVSubShapeHitList@@@Z @1671; ?SubObjectHitTest@BezierShape@@QAEHPAVGraphicsWindow@@PAVMaterial@@PAVHitRegion@@KAAVSubShapeHitList@@@Z
    ?SubObjectHitTest@LoftObject@@QAEHPAVGraphicsWindow@@HPAVMaterial@@PAVHitRegion@@KAAVSubLoftHitList@@@Z @1672; ?SubObjectHitTest@LoftObject@@QAEHPAVGraphicsWindow@@HPAVMaterial@@PAVHitRegion@@KAAVSubLoftHitList@@@Z
    ?SuperAccept@Hold@@QAEXH@Z     @1673; ?SuperAccept@Hold@@QAEXH@Z
    ?SuperAccept@Hold@@QAEXPAD@Z   @1674; ?SuperAccept@Hold@@QAEXPAD@Z
    ?SuperBegin@Hold@@QAEXXZ       @1675; ?SuperBegin@Hold@@QAEXXZ
    ?SuperCancel@Hold@@QAEXXZ      @1676; ?SuperCancel@Hold@@QAEXXZ
    ?SuperClassID@Animatable@@UAEKXZ @1677; ?SuperClassID@Animatable@@UAEKXZ
    ?SupportTimeOperations@DefNoteTrack@@UAEHXZ @1678; ?SupportTimeOperations@DefNoteTrack@@UAEHXZ
    ?SurroundsPoint@PolyLine@@QAEHAAVPoint2@@@Z @1679; ?SurroundsPoint@PolyLine@@QAEHAAVPoint2@@@Z
    ?SurroundsPoint@Spline3D@@QAEHVPoint2@@@Z @1680; ?SurroundsPoint@Spline3D@@QAEHVPoint2@@@Z
    ?Suspend@Hold@@QAEXXZ          @1681; ?Suspend@Hold@@QAEXXZ
    ?SuspendAnimate@@YAXXZ         @1682; ?SuspendAnimate@@YAXXZ
    ?TEXMAP_CAT_2D@@3PADA          @1683; ?TEXMAP_CAT_2D@@3PADA
    ?TEXMAP_CAT_3D@@3PADA          @1684; ?TEXMAP_CAT_3D@@3PADA
    ?TEXMAP_CAT_COLMOD@@3PADA      @1685; ?TEXMAP_CAT_COLMOD@@3PADA
    ?TEXMAP_CAT_COMP@@3PADA        @1686; ?TEXMAP_CAT_COMP@@3PADA
    ?TEXMAP_CAT_ENV@@3PADA         @1687; ?TEXMAP_CAT_ENV@@3PADA
    ?TMIsIdentity@ObjectState@@QBEHXZ @1688; ?TMIsIdentity@ObjectState@@QBEHXZ
    ?TangentBezier3D@Spline3D@@QAE?AVPoint3@@HM@Z @1689; ?TangentBezier3D@Spline3D@@QAE?AVPoint3@@HM@Z
    ?TangentCurve3D@LinearShape@@UAE?AVPoint3@@HHM@Z @1690; ?TangentCurve3D@LinearShape@@UAE?AVPoint3@@HHM@Z
    ?TangentCurve3D@PolyLine@@QAE?AVPoint3@@M@Z @1691; ?TangentCurve3D@PolyLine@@QAE?AVPoint3@@M@Z
    ?TangentCurve3D@SimpleSpline@@UAE?AVPoint3@@HHM@Z @1692; ?TangentCurve3D@SimpleSpline@@UAE?AVPoint3@@HHM@Z
    ?TangentCurve3D@Spline3D@@QAE?AVPoint3@@M@Z @1693; ?TangentCurve3D@Spline3D@@QAE?AVPoint3@@M@Z
    ?TangentCurve3D@SplineShape@@UAE?AVPoint3@@HHM@Z @1694; ?TangentCurve3D@SplineShape@@UAE?AVPoint3@@HHM@Z
    ?TangentCurve@LoftShape@@QAE?AVPoint3@@HHM@Z @1695; ?TangentCurve@LoftShape@@QAE?AVPoint3@@HHM@Z
    ?TangentPiece3D@LinearShape@@UAE?AVPoint3@@HHHM@Z @1696; ?TangentPiece3D@LinearShape@@UAE?AVPoint3@@HHHM@Z
    ?TangentPiece3D@PolyLine@@QAE?AVPoint3@@HM@Z @1697; ?TangentPiece3D@PolyLine@@QAE?AVPoint3@@HM@Z
    ?TangentPiece3D@SimpleShape@@UAE?AVPoint3@@HHHM@Z @1698; ?TangentPiece3D@SimpleShape@@UAE?AVPoint3@@HHHM@Z
    ?TangentPiece3D@SimpleSpline@@UAE?AVPoint3@@HHHM@Z @1699; ?TangentPiece3D@SimpleSpline@@UAE?AVPoint3@@HHHM@Z
    ?TangentPiece3D@SplineShape@@UAE?AVPoint3@@HHHM@Z @1700; ?TangentPiece3D@SplineShape@@UAE?AVPoint3@@HHHM@Z
    ?TestForLoop@ReferenceTarget@@QAE?AW4RefResult@@VInterval@@PAVReferenceMaker@@@Z @1701; ?TestForLoop@ReferenceTarget@@QAE?AW4RefResult@@VInterval@@PAVReferenceMaker@@@Z
    ?TimeToString@@YAXHAAVCStr@@@Z @1702; ?TimeToString@@YAXHAAVCStr@@@Z
    ?Timer@SpinnerControl@@UAEJG@Z @1703; ?Timer@SpinnerControl@@UAEJG@Z
    ?Toggle@ShapePSel@@QAEXXZ      @1704; ?Toggle@ShapePSel@@QAEXXZ
    ?Toggle@ShapeSSel@@QAEXXZ      @1705; ?Toggle@ShapeSSel@@QAEXXZ
    ?Toggle@ShapeVSel@@QAEXXZ      @1706; ?Toggle@ShapeVSel@@QAEXXZ
    ?TrackParamsType@DefNoteTrack@@UAEHXZ @1707; ?TrackParamsType@DefNoteTrack@@UAEHXZ
    ?TransferReferences@ReferenceTarget@@QAE?AW4RefResult@@PAV1@H@Z @1708; ?TransferReferences@ReferenceTarget@@QAE?AW4RefResult@@PAV1@H@Z
    ?Transform@BezierShape@@QAEXAAVMatrix3@@@Z @1709; ?Transform@BezierShape@@QAEXAAVMatrix3@@@Z
    ?Transform@PolyLine@@QAEXAAVMatrix3@@@Z @1710; ?Transform@PolyLine@@QAEXAAVMatrix3@@@Z
    ?Transform@PolyShape@@QAEXAAVMatrix3@@@Z @1711; ?Transform@PolyShape@@QAEXAAVMatrix3@@@Z
    ?Transform@Spline3D@@QAEXPAVMatrix3@@@Z @1712; ?Transform@Spline3D@@QAEXPAVMatrix3@@@Z
    ?TransformCancel@LoftObject@@UAEXH@Z @1713; ?TransformCancel@LoftObject@@UAEXH@Z
    ?TransformFinish@LoftObject@@UAEXH@Z @1714; ?TransformFinish@LoftObject@@UAEXH@Z
    ?TransformHoldingFinish@LoftObject@@UAEXH@Z @1715; ?TransformHoldingFinish@LoftObject@@UAEXH@Z
    ?TransformHoldingStart@LoftObject@@UAEXH@Z @1716; ?TransformHoldingStart@LoftObject@@UAEXH@Z
    ?TransformStart@LoftObject@@UAEXH@Z @1717; ?TransformStart@LoftObject@@UAEXH@Z
    ?UnProjectPoint@Spline3D@@QAE?AVPoint3@@PAVViewExp@@VIPoint2@@PAVMatrix3@@@Z @1718; ?UnProjectPoint@Spline3D@@QAE?AVPoint3@@PAVViewExp@@VIPoint2@@PAVMatrix3@@@Z
    ?UnRegister@EventRouter@@QAEXPAVEventUser@@@Z @1719; ?UnRegister@EventRouter@@QAEXPAVEventUser@@@Z
    ?UnRegisterNotification@@YAHP6AXPAXPAUNotifyInfo@@@Z0@Z @1720; ?UnRegisterNotification@@YAHP6AXPAXPAUNotifyInfo@@@Z0@Z
    ?UnRegisterNotification@@YAHP6AXPAXPAUNotifyInfo@@@Z0H@Z @1721; ?UnRegisterNotification@@YAHP6AXPAXPAUNotifyInfo@@@Z0H@Z
    ?Undo@InsertCrossSectionEntryRestore@@UAEXPAVLoftObject@@@Z @1722; ?Undo@InsertCrossSectionEntryRestore@@UAEXPAVLoftObject@@@Z
    ?Undo@LoftReplaceSectionRestore@@UAEXPAVLoftObject@@@Z @1723; ?Undo@LoftReplaceSectionRestore@@UAEXPAVLoftObject@@@Z
    ?Undo@LoftShapeDupFinish@@UAEXPAVLoftObject@@@Z @1724; ?Undo@LoftShapeDupFinish@@UAEXPAVLoftObject@@@Z
    ?Undo@LoftShapeDupStart@@UAEXPAVLoftObject@@@Z @1725; ?Undo@LoftShapeDupStart@@UAEXPAVLoftObject@@@Z
    ?Undo@OrderSectionsRestore@@UAEXPAVLoftObject@@@Z @1726; ?Undo@OrderSectionsRestore@@UAEXPAVLoftObject@@@Z
    ?Undo@PathGetRecord@@UAEXPAVLoftObject@@@Z @1727; ?Undo@PathGetRecord@@UAEXPAVLoftObject@@@Z
    ?Undo@SecRemoveRecord@@UAEXPAVLoftObject@@@Z @1728; ?Undo@SecRemoveRecord@@UAEXPAVLoftObject@@@Z
    ?UndoStringID@MoveCtrlApparatus@@UAEHXZ @1729; ?UndoStringID@MoveCtrlApparatus@@UAEHXZ
    ?UndoStringID@MoveModBox@@UAEHXZ @1730; ?UndoStringID@MoveModBox@@UAEHXZ
    ?UndoStringID@RotateCtrlApparatus@@UAEHXZ @1731; ?UndoStringID@RotateCtrlApparatus@@UAEHXZ
    ?UndoStringID@RotateModBox@@UAEHXZ @1732; ?UndoStringID@RotateModBox@@UAEHXZ
    ?UndoStringID@ScaleCtrlApparatus@@UAEHXZ @1733; ?UndoStringID@ScaleCtrlApparatus@@UAEHXZ
    ?UndoStringID@ScaleModBox@@UAEHXZ @1734; ?UndoStringID@ScaleModBox@@UAEHXZ
    ?UndoStringID@SelectCtrlApparatus@@UAEHXZ @1735; ?UndoStringID@SelectCtrlApparatus@@UAEHXZ
    ?UndoStringID@SelectModBox@@UAEHXZ @1736; ?UndoStringID@SelectModBox@@UAEHXZ
    ?UniformParams@Spline3D@@QAEXXZ @1737; ?UniformParams@Spline3D@@QAEXXZ
    ?Uninit@BezFontManager@@QAEXXZ @1738; ?Uninit@BezFontManager@@QAEXXZ
    ?UnloadAllDlls@DllDir@@QAEXXZ  @1739; ?UnloadAllDlls@DllDir@@QAEXXZ
    ?Unregister@RightClickMenuManager@@QAEXPAVRightClickMenu@@@Z @1740; ?Unregister@RightClickMenuManager@@QAEXPAVRightClickMenu@@@Z
    ?Update@ObjLightDesc@@UAEHHABVRendContext@@H@Z @1741; ?Update@ObjLightDesc@@UAEHHABVRendContext@@H@Z
    ?Update@SimpleParticle@@QAEXHPAVINode@@@Z @1742; ?Update@SimpleParticle@@QAEXHPAVINode@@@Z
    ?UpdateCachedHierarchy@PolyShape@@QAEXXZ @1743; ?UpdateCachedHierarchy@PolyShape@@QAEXXZ
    ?UpdateFromEdit@SpinnerControl@@QAEXXZ @1744; ?UpdateFromEdit@SpinnerControl@@QAEXXZ
    ?UpdateInternalPointers@LoftObject@@QAEXXZ @1745; ?UpdateInternalPointers@LoftObject@@QAEXXZ
    ?UpdateLofterDeformParams@LoftObject@@QAEXXZ @1746; ?UpdateLofterDeformParams@LoftObject@@QAEXXZ
    ?UpdateLofterPathCommands@LoftObject@@QAEXXZ @1747; ?UpdateLofterPathCommands@LoftObject@@QAEXXZ
    ?UpdateLofterPathParams@LoftObject@@QAEXXZ @1748; ?UpdateLofterPathParams@LoftObject@@QAEXXZ
    ?UpdateLofterShapeCommands@LoftObject@@QAEXXZ @1749; ?UpdateLofterShapeCommands@LoftObject@@QAEXXZ
    ?UpdateLofterSkinParams@LoftObject@@QAEXXZ @1750; ?UpdateLofterSkinParams@LoftObject@@QAEXXZ
    ?UpdateLofterSurfaceParams@LoftObject@@QAEXXZ @1751; ?UpdateLofterSurfaceParams@LoftObject@@QAEXXZ
    ?UpdateMatrix@LoftShape@@QAEXH@Z @1752; ?UpdateMatrix@LoftShape@@QAEXH@Z
    ?UpdateMesh@SimpleObject@@QAEXH@Z @1753; ?UpdateMesh@SimpleObject@@QAEXH@Z
    ?UpdateMesh@SimpleParticle@@QAEXH@Z @1754; ?UpdateMesh@SimpleParticle@@QAEXH@Z
    ?UpdateMesh@SimpleWSMObject@@QAEXH@Z @1755; ?UpdateMesh@SimpleWSMObject@@QAEXH@Z
    ?UpdateParameterBlock@@YAPAVIParamBlock@@PAVParamBlockDescID@@HPAV1@0HK@Z @1756; ?UpdateParameterBlock@@YAPAVIParamBlock@@PAVParamBlockDescID@@HPAV1@0HK@Z
    ?UpdatePathLevels@LoftObject@@QAEXH@Z @1757; ?UpdatePathLevels@LoftObject@@QAEXH@Z
    ?UpdateSels@BezierShape@@QAEXXZ @1758; ?UpdateSels@BezierShape@@QAEXXZ
    ?UpdateSels@PolyShape@@QAEXXZ  @1759; ?UpdateSels@PolyShape@@QAEXXZ
    ?UpdateShape@SimpleShape@@QAEXH@Z @1760; ?UpdateShape@SimpleShape@@QAEXH@Z
    ?UpdateShape@SimpleSpline@@QAEXH@Z @1761; ?UpdateShape@SimpleSpline@@QAEXH@Z
    ?UpdateValidity@Object@@QAEXHVInterval@@@Z @1762; ?UpdateValidity@Object@@QAEXHVInterval@@@Z
    ?UpdateViewDepParams@ObjLightDesc@@UAEHABVMatrix3@@@Z @1763; ?UpdateViewDepParams@ObjLightDesc@@UAEHABVMatrix3@@@Z
    ?UseAxis@UVSourceDir@@QAEEH@Z  @1764; ?UseAxis@UVSourceDir@@QAEEH@Z
    ?Validity@ObjectState@@QBE?AVInterval@@H@Z @1765; ?Validity@ObjectState@@QBE?AVInterval@@H@Z
    ?VertexTempSel@BezierShape@@QAE?AVBitArray@@H@Z @1766; ?VertexTempSel@BezierShape@@QAE?AVBitArray@@H@Z
    ?VertexTempSel@PolyShape@@QAE?AVBitArray@@H@Z @1767; ?VertexTempSel@PolyShape@@QAE?AVBitArray@@H@Z
    ?WMEnable@SpinnerControl@@UAEJH@Z @1768; ?WMEnable@SpinnerControl@@UAEJH@Z
    ?WSMDerivObjClassID@@3VClass_ID@@A @1769; ?WSMDerivObjClassID@@3VClass_ID@@A
    ?WhiteRect3D@@YAXPAUHDC__@@UtagRECT@@H@Z @1770; ?WhiteRect3D@@YAXPAUHDC__@@UtagRECT@@H@Z
    ?WindowProc@CustomControl@@QAGJPAUHWND__@@IIJ@Z @1771; ?WindowProc@CustomControl@@QAGJPAUHWND__@@IIJ@Z
    ?XORDottedCircle@@YAXPAUHWND__@@VIPoint2@@1@Z @1772; ?XORDottedCircle@@YAXPAUHWND__@@VIPoint2@@1@Z
    ?XORDottedPolyline@@YAXPAUHWND__@@HPAVIPoint2@@@Z @1773; ?XORDottedPolyline@@YAXPAUHWND__@@HPAVIPoint2@@@Z
    ?XORDottedRect@@YAXPAUHWND__@@VIPoint2@@1@Z @1774; ?XORDottedRect@@YAXPAUHWND__@@VIPoint2@@1@Z
    ?XORRect@@YAXPAUHDC__@@AAUtagRECT@@H@Z @1775; ?XORRect@@YAXPAUHDC__@@AAUtagRECT@@H@Z
    ?backspaceRouter@@3VEventRouter@@A @1776; ?backspaceRouter@@3VEventRouter@@A
    ?bias@@YAMMM@Z                 @1777; ?bias@@YAMMM@Z
    ?boxstep@@YAMMMM@Z             @1778; ?boxstep@@YAMMMM@Z
    ?chMask@@3PAKA                 @1779; ?chMask@@3PAKA
    ?clamp@@YAMMMM@Z               @1780; ?clamp@@YAMMMM@Z
    ?color_spline@@YA?AVColor@@MHPAV1@@Z @1781; ?color_spline@@YA?AVColor@@MHPAV1@@Z
    ?creating@LoftObject@@2HA      @1782; ?creating@LoftObject@@2HA
    ?deGammaCorrect@@YAEEM@Z       @1783; ?deGammaCorrect@@YAEEM@Z
    ?deGammaCorrect@@YAGGM@Z       @1784; ?deGammaCorrect@@YAGGM@Z
    ?deGammaCorrect@@YAMMM@Z       @1785; ?deGammaCorrect@@YAMMM@Z
    ?decomp_affine@@YAXVMatrix3@@PAUAffineParts@@@Z @1786; ?decomp_affine@@YAXVMatrix3@@PAUAffineParts@@@Z
    ?defObjectClassID@@3VClass_ID@@A @1787; ?defObjectClassID@@3VClass_ID@@A
    ?defaultDim@@3PAVParamDimension@@A @1788; ?defaultDim@@3PAVParamDimension@@A
    ?deleteRouter@@3VEventRouter@@A @1789; ?deleteRouter@@3VEventRouter@@A
    ?derivObjClassID@@3VClass_ID@@A @1790; ?derivObjClassID@@3VClass_ID@@A
    ?dummyClassID@@3VClass_ID@@A   @1791; ?dummyClassID@@3VClass_ID@@A
    ?editOb@SimpleParticle@@2PAV1@A @1792; ?editOb@SimpleParticle@@2PAV1@A
    ?fBm1@@YAMMMMM@Z               @1793; ?fBm1@@YAMMMMM@Z
    ?fBm1@@YAMVPoint2@@MMM@Z       @1794; ?fBm1@@YAMVPoint2@@MMM@Z
    ?fBm1@@YAMVPoint3@@MMM@Z       @1795; ?fBm1@@YAMVPoint3@@MMM@Z
    ?gain@@YAMMM@Z                 @1796; ?gain@@YAMMM@Z
    ?gammaCorrect@@YAEEM@Z         @1797; ?gammaCorrect@@YAEEM@Z
    ?gammaCorrect@@YAGGM@Z         @1798; ?gammaCorrect@@YAGGM@Z
    ?gammaCorrect@@YAMMM@Z         @1799; ?gammaCorrect@@YAMMM@Z
    ?gammaMgr@@3VGammaMgr@@A       @1800; ?gammaMgr@@3VGammaMgr@@A
    ?genericShapeClassID@@3VClass_ID@@A @1801; ?genericShapeClassID@@3VClass_ID@@A
    ?getHitType@@YAHXZ             @1802; ?getHitType@@YAHXZ
    ?getType@LoftObject@@2HA       @1803; ?getType@LoftObject@@2HA
    ?granularitySpin@LoftObject@@2PAVISpinnerControl@@A @1804; ?granularitySpin@LoftObject@@2PAVISpinnerControl@@A
    ?hCreateMethod@LoftObject@@2PAUHWND__@@A @1805; ?hCreateMethod@LoftObject@@2PAUHWND__@@A
    ?hDeformParams@LoftObject@@2PAUHWND__@@A @1806; ?hDeformParams@LoftObject@@2PAUHWND__@@A
    ?hPathCommands@LoftObject@@2PAUHWND__@@A @1807; ?hPathCommands@LoftObject@@2PAUHWND__@@A
    ?hPathParams@LoftObject@@2PAUHWND__@@A @1808; ?hPathParams@LoftObject@@2PAUHWND__@@A
    ?hShapeCommands@LoftObject@@2PAUHWND__@@A @1809; ?hShapeCommands@LoftObject@@2PAUHWND__@@A
    ?hSkinParams@LoftObject@@2PAUHWND__@@A @1810; ?hSkinParams@LoftObject@@2PAUHWND__@@A
    ?hSurfaceParams@LoftObject@@2PAUHWND__@@A @1811; ?hSurfaceParams@LoftObject@@2PAUHWND__@@A
    ?iBevelEnable@LoftObject@@2PAVICustButton@@A @1812; ?iBevelEnable@LoftObject@@2PAVICustButton@@A
    ?iFitEnable@LoftObject@@2PAVICustButton@@A @1813; ?iFitEnable@LoftObject@@2PAVICustButton@@A
    ?iScaleEnable@LoftObject@@2PAVICustButton@@A @1814; ?iScaleEnable@LoftObject@@2PAVICustButton@@A
    ?iTeeterEnable@LoftObject@@2PAVICustButton@@A @1815; ?iTeeterEnable@LoftObject@@2PAVICustButton@@A
    ?iTwistEnable@LoftObject@@2PAVICustButton@@A @1816; ?iTwistEnable@LoftObject@@2PAVICustButton@@A
    ?idTM@@3VIdentityTM@@A         @1817; ?idTM@@3VIdentityTM@@A
    ?invert_affine@@YAXPAUAffineParts@@0@Z @1818; ?invert_affine@@YAXPAUAffineParts@@0@Z
    ?ip@SimpleMod@@2PAVIObjParam@@A @1819; ?ip@SimpleMod@@2PAVIObjParam@@A
    ?ip@SimpleParticle@@2PAVIObjParam@@A @1820; ?ip@SimpleParticle@@2PAVIObjParam@@A
    ?ip@SimpleWSMMod@@2PAVIObjParam@@A @1821; ?ip@SimpleWSMMod@@2PAVIObjParam@@A
    ?levelSpin@LoftObject@@2PAVISpinnerControl@@A @1822; ?levelSpin@LoftObject@@2PAVISpinnerControl@@A
    ?linearShapeClassID@@3VClass_ID@@A @1823; ?linearShapeClassID@@3VClass_ID@@A
    ?loftDeformCurveClassID@@3VClass_ID@@A @1824; ?loftDeformCurveClassID@@3VClass_ID@@A
    ?loftObjectClassID@@3VClass_ID@@A @1825; ?loftObjectClassID@@3VClass_ID@@A
    ?loftPickShapeMode@LoftObject@@1PAVLoftPickShapeCMode@@A @1826; ?loftPickShapeMode@LoftObject@@1PAVLoftPickShapeCMode@@A
    ?mapObjectClassID@@3VClass_ID@@A @1827; ?mapObjectClassID@@3VClass_ID@@A
    ?mod@@YAHHH@Z                  @1828; ?mod@@YAHHH@Z
    ?mod@@YAMMM@Z                  @1829; ?mod@@YAMMM@Z
    ?moveMode@LoftObject@@1PAVMoveModBoxCMode@@A @1830; ?moveMode@LoftObject@@1PAVMoveModBoxCMode@@A
    ?noise1@@YAMM@Z                @1831; ?noise1@@YAMM@Z
    ?noise2@@YAMVPoint2@@@Z        @1832; ?noise2@@YAMVPoint2@@@Z
    ?noise3@@YAMVPoint3@@@Z        @1833; ?noise3@@YAMVPoint3@@@Z
    ?noise3DS@@YAMVPoint3@@@Z      @1834; ?noise3DS@@YAMVPoint3@@@Z
    ?noise4@@YAMVPoint3@@M@Z       @1835; ?noise4@@YAMVPoint3@@M@Z
    ?nurbsObjectClassID@@3VClass_ID@@A @1836; ?nurbsObjectClassID@@3VClass_ID@@A
    ?nuscaleMode@LoftObject@@1PAVNUScaleModBoxCMode@@A @1837; ?nuscaleMode@LoftObject@@1PAVNUScaleModBoxCMode@@A
    ?pStepsSpin@LoftObject@@2PAVISpinnerControl@@A @1838; ?pStepsSpin@LoftObject@@2PAVISpinnerControl@@A
    ?pan@SelectionProcessor@@UAEXVIPoint2@@@Z @1839; ?pan@SelectionProcessor@@UAEXVIPoint2@@@Z
    ?patchObjectClassID@@3VClass_ID@@A @1840; ?patchObjectClassID@@3VClass_ID@@A
    ?pickPathCB@LoftObject@@2VPickPath@@A @1841; ?pickPathCB@LoftObject@@2VPickPath@@A
    ?pickShapeCB@LoftObject@@2VPickShape@@A @1842; ?pickShapeCB@LoftObject@@2VPickShape@@A
    ?prOState@@YAXAAVObjectState@@PADH@Z @1843; ?prOState@@YAXAAVObjectState@@PADH@Z
    ?proc@BoxLineProc@@UAEHPAVPoint3@@H@Z @1844; ?proc@BoxLineProc@@UAEHPAVPoint3@@H@Z
    ?proc@MouseCallBack@@UAEHPAUHWND__@@HHHVIPoint2@@@Z @1845; ?proc@MouseCallBack@@UAEHPAUHWND__@@HHHVIPoint2@@@Z
    ?proc@ParamBlockPLCB@@UAEXPAVILoad@@@Z @1846; ?proc@ParamBlockPLCB@@UAEXPAVILoad@@@Z
    ?proc@SelectionProcessor@@UAEHPAUHWND__@@HHHVIPoint2@@@Z @1847; ?proc@SelectionProcessor@@UAEHPAUHWND__@@HHHVIPoint2@@@Z
    ?proc@TransformCtrlApparatus@@UAEHPAUHWND__@@HHHVIPoint2@@@Z @1848; ?proc@TransformCtrlApparatus@@UAEHPAUHWND__@@HHHVIPoint2@@@Z
    ?proc@TransformModBox@@UAEHPAUHWND__@@HHHVIPoint2@@@Z @1849; ?proc@TransformModBox@@UAEHPAUHWND__@@HHHVIPoint2@@@Z
    ?rollupsDisplayed@LoftObject@@2HA @1850; ?rollupsDisplayed@LoftObject@@2HA
    ?rotMode@LoftObject@@1PAVRotateModBoxCMode@@A @1851; ?rotMode@LoftObject@@1PAVRotateModBoxCMode@@A
    ?sStepsSpin@LoftObject@@2PAVISpinnerControl@@A @1852; ?sStepsSpin@LoftObject@@2PAVISpinnerControl@@A
    ?selectMode@LoftObject@@1PAVSelectModBoxCMode@@A @1853; ?selectMode@LoftObject@@1PAVSelectModBoxCMode@@A
    ?setHitType@@YAXH@Z            @1854; ?setHitType@@YAXH@Z
    ?setdebug@@YAXH@Z              @1855; ?setdebug@@YAXH@Z
    ?shapeCommandLevelSpin@LoftObject@@2PAVISpinnerControl@@A @1856; ?shapeCommandLevelSpin@LoftObject@@2PAVISpinnerControl@@A
    ?smoothstep@@YAMMMM@Z          @1857; ?smoothstep@@YAMMMM@Z
    ?spline@@YAMMHPAM@Z            @1858; ?spline@@YAMMHPAM@Z
    ?splineShapeClassID@@3VClass_ID@@A @1859; ?splineShapeClassID@@3VClass_ID@@A
    ?squashMode@LoftObject@@1PAVSquashModBoxCMode@@A @1860; ?squashMode@LoftObject@@1PAVSquashModBoxCMode@@A
    ?sramp@@YAMMMMM@Z              @1861; ?sramp@@YAMMMMM@Z
    ?standinClassID@@3VClass_ID@@A @1862; ?standinClassID@@3VClass_ID@@A
    ?stdAngleDim@@3PAVParamDimension@@A @1863; ?stdAngleDim@@3PAVParamDimension@@A
    ?stdColor255Dim@@3PAVParamDimension@@A @1864; ?stdColor255Dim@@3PAVParamDimension@@A
    ?stdColorDim@@3PAVParamDimension@@A @1865; ?stdColorDim@@3PAVParamDimension@@A
    ?stdNormalizedDim@@3PAVParamDimension@@A @1866; ?stdNormalizedDim@@3PAVParamDimension@@A
    ?stdPercentDim@@3PAVParamDimension@@A @1867; ?stdPercentDim@@3PAVParamDimension@@A
    ?stdSegmentsDim@@3PAVParamDimension@@A @1868; ?stdSegmentsDim@@3PAVParamDimension@@A
    ?stdTimeDim@@3PAVParamDimension@@A @1869; ?stdTimeDim@@3PAVParamDimension@@A
    ?stdWorldDim@@3PAVParamDimension@@A @1870; ?stdWorldDim@@3PAVParamDimension@@A
    ?theBezFontManager@@3VBezFontManager@@A @1871; ?theBezFontManager@@3VBezFontManager@@A
    ?theHold@@3VHold@@A            @1872; ?theHold@@3VHold@@A
    ?threshold@@YAMMMM@Z           @1873; ?threshold@@YAMMMM@Z
    ?tmpStore@@3VTempStore@@A      @1874; ?tmpStore@@3VTempStore@@A
    ?triObjectClassID@@3VClass_ID@@A @1875; ?triObjectClassID@@3VClass_ID@@A
    ?turbulence@@YAMAAVPoint3@@M@Z @1876; ?turbulence@@YAMAAVPoint3@@M@Z
    ?uscaleMode@LoftObject@@1PAVUScaleModBoxCMode@@A @1877; ?uscaleMode@LoftObject@@1PAVUScaleModBoxCMode@@A
