LIBRARY     GEOM.DLL

EXPORTS
    ??0AngAxis@@QAE@ABVQuat@@@Z    @1   ; ??0AngAxis@@QAE@ABVQuat@@@Z
    ??0BitArray@@QAE@ABV0@@Z       @2   ; ??0BitArray@@QAE@ABV0@@Z
    ??0BitArray@@QAE@H@Z           @3   ; ??0BitArray@@QAE@H@Z
    ??0Box2@@QAE@VIPoint2@@0@Z     @4   ; ??0Box2@@QAE@VIPoint2@@0@Z
    ??0Box2@@QAE@XZ                @5   ; ??0Box2@@QAE@XZ
    ??0Box3@@QAE@XZ                @6   ; ??0Box3@@QAE@XZ
    ??0Color@@QAE@K@Z              @7   ; ??0Color@@QAE@K@Z
    ??0Matrix2@@QAE@PAY01M@Z       @8   ; ??0Matrix2@@QAE@PAY01M@Z
    ??0Matrix3@@QAE@PAY02M@Z       @9   ; ??0Matrix3@@QAE@PAY02M@Z
    ??0Matrix3Stack@@QAE@H@Z       @10  ; ??0Matrix3Stack@@QAE@H@Z
    ??0Matrix3Stack@@QAE@XZ        @11  ; ??0Matrix3Stack@@QAE@XZ
    ??0Quat@@QAE@ABVAngAxis@@@Z    @12  ; ??0Quat@@QAE@ABVAngAxis@@@Z
    ??0Quat@@QAE@ABVMatrix3@@@Z    @13  ; ??0Quat@@QAE@ABVMatrix3@@@Z
    ??1BitArray@@QAE@XZ            @14  ; ??1BitArray@@QAE@XZ
    ??1Matrix3Stack@@QAE@XZ        @15  ; ??1Matrix3Stack@@QAE@XZ
    ??4BitArray@@QAEAAV0@ABV0@@Z   @16  ; ??4BitArray@@QAEAAV0@ABV0@@Z
    ??4Box2@@QAEAAV0@AAUtagRECT@@@Z @17  ; ??4Box2@@QAEAAV0@AAUtagRECT@@@Z
    ??4Box2@@QAEAAV0@ABUtagRECT@@@Z @18  ; ??4Box2@@QAEAAV0@ABUtagRECT@@@Z
    ??6@YAAAVostream@@AAV0@AAVMatrix2@@@Z @19  ; ??6@YAAAVostream@@AAV0@AAVMatrix2@@@Z
    ??6@YAAAVostream@@AAV0@ABVDPoint3@@@Z @20  ; ??6@YAAAVostream@@AAV0@ABVDPoint3@@@Z
    ??6@YAAAVostream@@AAV0@ABVIPoint2@@@Z @21  ; ??6@YAAAVostream@@AAV0@ABVIPoint2@@@Z
    ??6@YAAAVostream@@AAV0@ABVIPoint3@@@Z @22  ; ??6@YAAAVostream@@AAV0@ABVIPoint3@@@Z
    ??6@YAAAVostream@@AAV0@ABVPoint2@@@Z @23  ; ??6@YAAAVostream@@AAV0@ABVPoint2@@@Z
    ??8Quat@@QBEHABV0@@Z           @24  ; ??8Quat@@QBEHABV0@@Z
    ??ABitArray@@QBEHH@Z           @25  ; ??ABitArray@@QBEHH@Z
    ??ABox3@@QBE?AVPoint3@@H@Z     @26  ; ??ABox3@@QBE?AVPoint3@@H@Z
    ??BColor@@QAE?AURealPixel@@XZ  @27  ; ??BColor@@QAE?AURealPixel@@XZ
    ??BRealPixel@@QAE?AVColor@@XZ  @28  ; ??BRealPixel@@QAE?AVColor@@XZ
    ??D@YA?AVDPoint3@@ABV0@N@Z     @29  ; ??D@YA?AVDPoint3@@ABV0@N@Z
    ??D@YA?AVDPoint3@@NABV0@@Z     @30  ; ??D@YA?AVDPoint3@@NABV0@@Z
    ??D@YA?AVIPoint2@@ABV0@H@Z     @31  ; ??D@YA?AVIPoint2@@ABV0@H@Z
    ??D@YA?AVIPoint2@@HABV0@@Z     @32  ; ??D@YA?AVIPoint2@@HABV0@@Z
    ??D@YA?AVPoint2@@ABV0@ABVMatrix2@@@Z @33  ; ??D@YA?AVPoint2@@ABV0@ABVMatrix2@@@Z
    ??D@YA?AVPoint2@@ABV0@M@Z      @34  ; ??D@YA?AVPoint2@@ABV0@M@Z
    ??D@YA?AVPoint2@@ABVMatrix2@@ABV0@@Z @35  ; ??D@YA?AVPoint2@@ABVMatrix2@@ABV0@@Z
    ??D@YA?AVPoint2@@MABV0@@Z      @36  ; ??D@YA?AVPoint2@@MABV0@@Z
    ??D@YA?AVPoint3@@ABV0@ABVMatrix3@@@Z @37  ; ??D@YA?AVPoint3@@ABV0@ABVMatrix3@@@Z
    ??D@YA?AVPoint3@@ABVMatrix3@@ABV0@@Z @38  ; ??D@YA?AVPoint3@@ABVMatrix3@@ABV0@@Z
    ??D@YA?AVQuat@@ABV0@M@Z        @39  ; ??D@YA?AVQuat@@ABV0@M@Z
    ??D@YA?AVQuat@@MABV0@@Z        @40  ; ??D@YA?AVQuat@@MABV0@@Z
    ??DBox3@@QBE?AV0@ABVMatrix3@@@Z @41  ; ??DBox3@@QBE?AV0@ABVMatrix3@@@Z
    ??DDPoint3@@QBENABV0@@Z        @42  ; ??DDPoint3@@QBENABV0@@Z
    ??DIPoint2@@QBEHABV0@@Z        @43  ; ??DIPoint2@@QBEHABV0@@Z
    ??DIPoint3@@QBEHABV0@@Z        @44  ; ??DIPoint3@@QBEHABV0@@Z
    ??DMatrix2@@QBE?AV0@ABV0@@Z    @45  ; ??DMatrix2@@QBE?AV0@ABV0@@Z
    ??DMatrix3@@QBE?AV0@ABV0@@Z    @46  ; ??DMatrix3@@QBE?AV0@ABV0@@Z
    ??DPoint2@@QBEMABV0@@Z         @47  ; ??DPoint2@@QBEMABV0@@Z
    ??DQuat@@QBE?AV0@ABV0@@Z       @48  ; ??DQuat@@QBE?AV0@ABV0@@Z
    ??GDPoint3@@QBE?AV0@ABV0@@Z    @49  ; ??GDPoint3@@QBE?AV0@ABV0@@Z
    ??GIPoint2@@QBE?AV0@ABV0@@Z    @50  ; ??GIPoint2@@QBE?AV0@ABV0@@Z
    ??GIPoint3@@QBE?AV0@ABV0@@Z    @51  ; ??GIPoint3@@QBE?AV0@ABV0@@Z
    ??GMatrix2@@QBE?AV0@ABV0@@Z    @52  ; ??GMatrix2@@QBE?AV0@ABV0@@Z
    ??GMatrix3@@QBE?AV0@ABV0@@Z    @53  ; ??GMatrix3@@QBE?AV0@ABV0@@Z
    ??GPoint2@@QBE?AV0@ABV0@@Z     @54  ; ??GPoint2@@QBE?AV0@ABV0@@Z
    ??GQuat@@QBE?AV0@ABV0@@Z       @55  ; ??GQuat@@QBE?AV0@ABV0@@Z
    ??HDPoint3@@QBE?AV0@ABV0@@Z    @56  ; ??HDPoint3@@QBE?AV0@ABV0@@Z
    ??HIPoint2@@QBE?AV0@ABV0@@Z    @57  ; ??HIPoint2@@QBE?AV0@ABV0@@Z
    ??HIPoint3@@QBE?AV0@ABV0@@Z    @58  ; ??HIPoint3@@QBE?AV0@ABV0@@Z
    ??HMatrix2@@QBE?AV0@ABV0@@Z    @59  ; ??HMatrix2@@QBE?AV0@ABV0@@Z
    ??HMatrix3@@QBE?AV0@ABV0@@Z    @60  ; ??HMatrix3@@QBE?AV0@ABV0@@Z
    ??HPoint2@@QBE?AV0@ABV0@@Z     @61  ; ??HPoint2@@QBE?AV0@ABV0@@Z
    ??HQuat@@QBE?AV0@ABV0@@Z       @62  ; ??HQuat@@QBE?AV0@ABV0@@Z
    ??IBitArray@@QBE?AV0@ABV0@@Z   @63  ; ??IBitArray@@QBE?AV0@ABV0@@Z
    ??K@YA?AVDPoint3@@ABV0@N@Z     @64  ; ??K@YA?AVDPoint3@@ABV0@N@Z
    ??K@YA?AVIPoint2@@ABV0@H@Z     @65  ; ??K@YA?AVIPoint2@@ABV0@H@Z
    ??K@YA?AVPoint2@@ABV0@M@Z      @66  ; ??K@YA?AVPoint2@@ABV0@M@Z
    ??K@YA?AVQuat@@ABV0@M@Z        @67  ; ??K@YA?AVQuat@@ABV0@M@Z
    ??KQuat@@QBE?AV0@ABV0@@Z       @68  ; ??KQuat@@QBE?AV0@ABV0@@Z
    ??SBitArray@@QAE?AV0@XZ        @69  ; ??SBitArray@@QAE?AV0@XZ
    ??TBitArray@@QBE?AV0@ABV0@@Z   @70  ; ??TBitArray@@QBE?AV0@ABV0@@Z
    ??TDPoint3@@QBE?AV0@ABV0@@Z    @71  ; ??TDPoint3@@QBE?AV0@ABV0@@Z
    ??TIPoint3@@QBE?AV0@ABV0@@Z    @72  ; ??TIPoint3@@QBE?AV0@ABV0@@Z
    ??TPoint3@@QBE?AV0@ABV0@@Z     @73  ; ??TPoint3@@QBE?AV0@ABV0@@Z
    ??UBitArray@@QBE?AV0@ABV0@@Z   @74  ; ??UBitArray@@QBE?AV0@ABV0@@Z
    ??XDPoint3@@QAEAAV0@N@Z        @75  ; ??XDPoint3@@QAEAAV0@N@Z
    ??XIPoint2@@QAEAAV0@H@Z        @76  ; ??XIPoint2@@QAEAAV0@H@Z
    ??XMatrix2@@QAEAAV0@ABV0@@Z    @77  ; ??XMatrix2@@QAEAAV0@ABV0@@Z
    ??XMatrix3@@QAEAAV0@ABV0@@Z    @78  ; ??XMatrix3@@QAEAAV0@ABV0@@Z
    ??XPoint2@@QAEAAV0@M@Z         @79  ; ??XPoint2@@QAEAAV0@M@Z
    ??XQuat@@QAEAAV0@ABV0@@Z       @80  ; ??XQuat@@QAEAAV0@ABV0@@Z
    ??XQuat@@QAEAAV0@M@Z           @81  ; ??XQuat@@QAEAAV0@M@Z
    ??YBox2@@QAEAAV0@ABV0@@Z       @82  ; ??YBox2@@QAEAAV0@ABV0@@Z
    ??YBox2@@QAEAAV0@ABVIPoint2@@@Z @83  ; ??YBox2@@QAEAAV0@ABVIPoint2@@@Z
    ??YBox3@@QAEAAV0@ABV0@@Z       @84  ; ??YBox3@@QAEAAV0@ABV0@@Z
    ??YBox3@@QAEAAV0@ABVPoint3@@@Z @85  ; ??YBox3@@QAEAAV0@ABVPoint3@@@Z
    ??YDPoint3@@QAEAAV0@ABV0@@Z    @86  ; ??YDPoint3@@QAEAAV0@ABV0@@Z
    ??YFBox2@@QAEAAU0@ABU0@@Z      @87  ; ??YFBox2@@QAEAAU0@ABU0@@Z
    ??YFBox2@@QAEAAU0@ABVPoint2@@@Z @88  ; ??YFBox2@@QAEAAU0@ABVPoint2@@@Z
    ??YIPoint3@@QAEAAV0@ABV0@@Z    @89  ; ??YIPoint3@@QAEAAV0@ABV0@@Z
    ??YMatrix2@@QAEAAV0@ABV0@@Z    @90  ; ??YMatrix2@@QAEAAV0@ABV0@@Z
    ??YMatrix3@@QAEAAV0@ABV0@@Z    @91  ; ??YMatrix3@@QAEAAV0@ABV0@@Z
    ??YPoint2@@QAEAAV0@ABV0@@Z     @92  ; ??YPoint2@@QAEAAV0@ABV0@@Z
    ??YQuat@@QAEAAV0@ABV0@@Z       @93  ; ??YQuat@@QAEAAV0@ABV0@@Z
    ??ZDPoint3@@QAEAAV0@ABV0@@Z    @94  ; ??ZDPoint3@@QAEAAV0@ABV0@@Z
    ??ZIPoint3@@QAEAAV0@ABV0@@Z    @95  ; ??ZIPoint3@@QAEAAV0@ABV0@@Z
    ??ZMatrix2@@QAEAAV0@ABV0@@Z    @96  ; ??ZMatrix2@@QAEAAV0@ABV0@@Z
    ??ZMatrix3@@QAEAAV0@ABV0@@Z    @97  ; ??ZMatrix3@@QAEAAV0@ABV0@@Z
    ??ZPoint2@@QAEAAV0@ABV0@@Z     @98  ; ??ZPoint2@@QAEAAV0@ABV0@@Z
    ??ZQuat@@QAEAAV0@ABV0@@Z       @99  ; ??ZQuat@@QAEAAV0@ABV0@@Z
    ??_0DPoint3@@QAEAAV0@N@Z       @100 ; ??_0DPoint3@@QAEAAV0@N@Z
    ??_0IPoint2@@QAEAAV0@H@Z       @101 ; ??_0IPoint2@@QAEAAV0@H@Z
    ??_0Point2@@QAEAAV0@M@Z        @102 ; ??_0Point2@@QAEAAV0@M@Z
    ??_0Quat@@QAEAAV0@M@Z          @103 ; ??_0Quat@@QAEAAV0@M@Z
    ??_4BitArray@@QAEAAV0@ABV0@@Z  @104 ; ??_4BitArray@@QAEAAV0@ABV0@@Z
    ??_5BitArray@@QAEAAV0@ABV0@@Z  @105 ; ??_5BitArray@@QAEAAV0@ABV0@@Z
    ??_6BitArray@@QAEAAV0@ABV0@@Z  @106 ; ??_6BitArray@@QAEAAV0@ABV0@@Z
    ?AngAxisFromQ@@YAXABVQuat@@PAMAAVPoint3@@@Z @107 ; ?AngAxisFromQ@@YAXABVQuat@@PAMAAVPoint3@@@Z
    ?ClampMax@Color@@QAEXXZ        @108 ; ?ClampMax@Color@@QAEXXZ
    ?ClampMin@Color@@QAEXXZ        @109 ; ?ClampMin@Color@@QAEXXZ
    ?ClampMinMax@Color@@QAEXXZ     @110 ; ?ClampMinMax@Color@@QAEXXZ
    ?Clear@BitArray@@QAEXH@Z       @111 ; ?Clear@BitArray@@QAEXH@Z
    ?ClearAll@BitArray@@QAEXXZ     @112 ; ?ClearAll@BitArray@@QAEXXZ
    ?Compress@BitArray@@QAEXXZ     @113 ; ?Compress@BitArray@@QAEXXZ
    ?CompressNormal@@YAKVPoint3@@@Z @114 ; ?CompressNormal@@YAKVPoint3@@@Z
    ?Conjugate@@YA?AVQuat@@ABV1@@Z @115 ; ?Conjugate@@YA?AVQuat@@ABV1@@Z
    ?Contains@Box2@@QBEHABVIPoint2@@@Z @116 ; ?Contains@Box2@@QBEHABVIPoint2@@@Z
    ?Contains@Box3@@QBEHABV1@@Z    @117 ; ?Contains@Box3@@QBEHABV1@@Z
    ?Contains@Box3@@QBEHABVPoint3@@@Z @118 ; ?Contains@Box3@@QBEHABVPoint3@@@Z
    ?Contains@FBox2@@QBEHABVPoint2@@@Z @119 ; ?Contains@FBox2@@QBEHABVPoint2@@@Z
    ?CrossProd@@YA?AVDPoint3@@ABV1@0@Z @120 ; ?CrossProd@@YA?AVDPoint3@@ABV1@0@Z
    ?CrossProd@@YA?AVPoint3@@ABV1@0@Z @121 ; ?CrossProd@@YA?AVPoint3@@ABV1@0@Z
    ?CrossProd@IPoint3@@QBE?AV1@ABV1@@Z @122 ; ?CrossProd@IPoint3@@QBE?AV1@ABV1@@Z
    ?DeCompressNormal@@YA?AVPoint3@@K@Z @123 ; ?DeCompressNormal@@YA?AVPoint3@@K@Z
    ?DecomposeMatrix@@YAXABVMatrix3@@AAVPoint3@@AAVQuat@@1@Z @124 ; ?DecomposeMatrix@@YAXABVMatrix3@@AAVPoint3@@AAVQuat@@1@Z
    ?DotProd@@YANABVDPoint3@@0@Z   @125 ; ?DotProd@@YANABVDPoint3@@0@Z
    ?DotProd@IPoint2@@QBEHABV1@@Z  @126 ; ?DotProd@IPoint2@@QBEHABV1@@Z
    ?DotProd@IPoint3@@QBEHABV1@@Z  @127 ; ?DotProd@IPoint3@@QBEHABV1@@Z
    ?DotProd@Point2@@QBEMABV1@@Z   @128 ; ?DotProd@Point2@@QBEMABV1@@Z
    ?EnlargeBy@Box3@@QAEXM@Z       @129 ; ?EnlargeBy@Box3@@QAEXM@Z
    ?EulerToQuat@@YA?AVQuat@@MMM@Z @130 ; ?EulerToQuat@@YA?AVQuat@@MMM@Z
    ?EulerToQuat@@YAXPAMAAVQuat@@@Z @131 ; ?EulerToQuat@@YAXPAMAAVQuat@@@Z
    ?Exp@@YA?AVQuat@@ABV1@@Z       @132 ; ?Exp@@YA?AVQuat@@ABV1@@Z
    ?Expand@BitArray@@QAEXXZ       @133 ; ?Expand@BitArray@@QAEXXZ
    ?ExpandRealPixel@@YAXABURealPixel@@AAM11@Z @134 ; ?ExpandRealPixel@@YAXABURealPixel@@AAM11@Z
    ?GetColumn@Matrix3@@QAE?AUPoint4@@H@Z @135 ; ?GetColumn@Matrix3@@QAE?AUPoint4@@H@Z
    ?GetNumRevs@AngAxis@@QAEHXZ    @136 ; ?GetNumRevs@AngAxis@@QAEHXZ
    ?IdentityMatrix@Matrix2@@QAEXXZ @137 ; ?IdentityMatrix@Matrix2@@QAEXXZ
    ?IdentityMatrix@Matrix3@@QAEXXZ @138 ; ?IdentityMatrix@Matrix3@@QAEXXZ
    ?Init@Box3@@QAEXXZ             @139 ; ?Init@Box3@@QAEXXZ
    ?Inverse@@YA?AVMatrix2@@ABV1@@Z @140 ; ?Inverse@@YA?AVMatrix2@@ABV1@@Z
    ?Inverse@@YA?AVMatrix3@@ABV1@@Z @141 ; ?Inverse@@YA?AVMatrix3@@ABV1@@Z
    ?Inverse@@YA?AVQuat@@ABV1@@Z   @142 ; ?Inverse@@YA?AVQuat@@ABV1@@Z
    ?IsEmpty@Box2@@QAEHXZ          @143 ; ?IsEmpty@Box2@@QAEHXZ
    ?IsEmpty@Box3@@QBEHXZ          @144 ; ?IsEmpty@Box3@@QBEHXZ
    ?IsIdentity@Quat@@QBEHXZ       @145 ; ?IsIdentity@Quat@@QBEHXZ
    ?Length@@YAHABVIPoint2@@@Z     @146 ; ?Length@@YAHABVIPoint2@@@Z
    ?Length@@YAMABVPoint2@@@Z      @147 ; ?Length@@YAMABVPoint2@@@Z
    ?Length@@YAMABVPoint3@@@Z      @148 ; ?Length@@YAMABVPoint3@@@Z
    ?Length@@YANABVDPoint3@@@Z     @149 ; ?Length@@YANABVDPoint3@@@Z
    ?LengthSquared@@YAMABVPoint3@@@Z @150 ; ?LengthSquared@@YAMABVPoint3@@@Z
    ?LnDif@@YA?AVQuat@@ABV1@0@Z    @151 ; ?LnDif@@YA?AVQuat@@ABV1@0@Z
    ?Load@BitArray@@QAE?AW4IOResult@@PAVILoad@@@Z @152 ; ?Load@BitArray@@QAE?AW4IOResult@@PAVILoad@@@Z
    ?Load@Matrix3@@QAE?AW4IOResult@@PAVILoad@@@Z @153 ; ?Load@Matrix3@@QAE?AW4IOResult@@PAVILoad@@@Z
    ?LogN@@YA?AVQuat@@ABV1@@Z      @154 ; ?LogN@@YA?AVQuat@@ABV1@@Z
    ?MakeClosest@Quat@@QAEAAV1@ABV1@@Z @155 ; ?MakeClosest@Quat@@QAEAAV1@ABV1@@Z
    ?MakeCube@Box3@@QAEXABVPoint3@@M@Z @156 ; ?MakeCube@Box3@@QAEXABVPoint3@@M@Z
    ?MakeMatrix@Quat@@QBEXAAVMatrix3@@@Z @157 ; ?MakeMatrix@Quat@@QBEXAAVMatrix3@@@Z
    ?MakeRealPixel@@YA?AURealPixel@@MMM@Z @158 ; ?MakeRealPixel@@YA?AURealPixel@@MMM@Z
    ?MaxComponent@@YAHABVColor@@@Z @159 ; ?MaxComponent@@YAHABVColor@@@Z
    ?MaxComponent@@YAHABVDPoint3@@@Z @160 ; ?MaxComponent@@YAHABVDPoint3@@@Z
    ?MaxComponent@@YAHABVIPoint3@@@Z @161 ; ?MaxComponent@@YAHABVIPoint3@@@Z
    ?MaxComponent@@YAHABVPoint2@@@Z @162 ; ?MaxComponent@@YAHABVPoint2@@@Z
    ?MaxComponent@@YAHABVPoint3@@@Z @163 ; ?MaxComponent@@YAHABVPoint3@@@Z
    ?MaxVal@@YAMABVColor@@@Z       @164 ; ?MaxVal@@YAMABVColor@@@Z
    ?MinComponent@@YAHABVColor@@@Z @165 ; ?MinComponent@@YAHABVColor@@@Z
    ?MinComponent@@YAHABVDPoint3@@@Z @166 ; ?MinComponent@@YAHABVDPoint3@@@Z
    ?MinComponent@@YAHABVIPoint3@@@Z @167 ; ?MinComponent@@YAHABVIPoint3@@@Z
    ?MinComponent@@YAHABVPoint2@@@Z @168 ; ?MinComponent@@YAHABVPoint2@@@Z
    ?MinComponent@@YAHABVPoint3@@@Z @169 ; ?MinComponent@@YAHABVPoint3@@@Z
    ?MinVal@@YAMABVColor@@@Z       @170 ; ?MinVal@@YAMABVColor@@@Z
    ?NoRot@Matrix3@@QAEXXZ         @171 ; ?NoRot@Matrix3@@QAEXXZ
    ?NoScale@Matrix3@@QAEXXZ       @172 ; ?NoScale@Matrix3@@QAEXXZ
    ?NoTrans@Matrix3@@QAEXXZ       @173 ; ?NoTrans@Matrix3@@QAEXXZ
    ?Normalize@@YA?AVDPoint3@@ABV1@@Z @174 ; ?Normalize@@YA?AVDPoint3@@ABV1@@Z
    ?Normalize@@YA?AVPoint2@@ABV1@@Z @175 ; ?Normalize@@YA?AVPoint2@@ABV1@@Z
    ?Normalize@@YA?AVPoint3@@ABV1@@Z @176 ; ?Normalize@@YA?AVPoint3@@ABV1@@Z
    ?Normalize@Quat@@QAEXXZ        @177 ; ?Normalize@Quat@@QAEXXZ
    ?NumberSet@BitArray@@QAEHXZ    @178 ; ?NumberSet@BitArray@@QAEHXZ
    ?Orthogonalize@Matrix3@@QAEXXZ @179 ; ?Orthogonalize@Matrix3@@QAEXXZ
    ?PreRotateMatrix@@YAXAAVMatrix3@@ABVQuat@@@Z @180 ; ?PreRotateMatrix@@YAXAAVMatrix3@@ABVQuat@@@Z
    ?PreRotateX@Matrix3@@QAEXM@Z   @181 ; ?PreRotateX@Matrix3@@QAEXM@Z
    ?PreRotateY@Matrix3@@QAEXM@Z   @182 ; ?PreRotateY@Matrix3@@QAEXM@Z
    ?PreRotateZ@Matrix3@@QAEXM@Z   @183 ; ?PreRotateZ@Matrix3@@QAEXM@Z
    ?PreScale@Matrix3@@QAEXABVPoint3@@H@Z @184 ; ?PreScale@Matrix3@@QAEXABVPoint3@@H@Z
    ?PreTranslate@Matrix3@@QAEXABVPoint3@@@Z @185 ; ?PreTranslate@Matrix3@@QAEXABVPoint3@@@Z
    ?QCompA@@YA?AVQuat@@ABV1@00@Z  @186 ; ?QCompA@@YA?AVQuat@@ABV1@00@Z
    ?QFromAngAxis@@YA?AVQuat@@MABVPoint3@@@Z @187 ; ?QFromAngAxis@@YA?AVQuat@@MABVPoint3@@@Z
    ?QangAxis@@YAMABVQuat@@0AAVPoint3@@@Z @188 ; ?QangAxis@@YAMABVQuat@@0AAVPoint3@@@Z
    ?QuatToEuler@@YAXAAVQuat@@PAM@Z @189 ; ?QuatToEuler@@YAXAAVQuat@@PAM@Z
    ?Rectify@Box2@@QAEXXZ          @190 ; ?Rectify@Box2@@QAEXXZ
    ?RotAngleAxisMatrix@@YA?AVMatrix3@@AAVPoint3@@M@Z @191 ; ?RotAngleAxisMatrix@@YA?AVMatrix3@@AAVPoint3@@M@Z
    ?Rotate@Matrix2@@QAEXM@Z       @192 ; ?Rotate@Matrix2@@QAEXM@Z
    ?RotateMatrix@@YA?AVMatrix2@@M@Z @193 ; ?RotateMatrix@@YA?AVMatrix2@@M@Z
    ?RotateMatrix@@YAXAAVMatrix3@@ABVQuat@@@Z @194 ; ?RotateMatrix@@YAXAAVMatrix3@@ABVQuat@@@Z
    ?RotateX@Matrix3@@QAEXM@Z      @195 ; ?RotateX@Matrix3@@QAEXM@Z
    ?RotateXMatrix@@YA?AVMatrix3@@M@Z @196 ; ?RotateXMatrix@@YA?AVMatrix3@@M@Z
    ?RotateY@Matrix3@@QAEXM@Z      @197 ; ?RotateY@Matrix3@@QAEXM@Z
    ?RotateYMatrix@@YA?AVMatrix3@@M@Z @198 ; ?RotateYMatrix@@YA?AVMatrix3@@M@Z
    ?RotateYPRMatrix@@YA?AVMatrix3@@MMM@Z @199 ; ?RotateYPRMatrix@@YA?AVMatrix3@@MMM@Z
    ?RotateZ@Matrix3@@QAEXM@Z      @200 ; ?RotateZ@Matrix3@@QAEXM@Z
    ?RotateZMatrix@@YA?AVMatrix3@@M@Z @201 ; ?RotateZMatrix@@YA?AVMatrix3@@M@Z
    ?Save@BitArray@@QAE?AW4IOResult@@PAVISave@@@Z @202 ; ?Save@BitArray@@QAE?AW4IOResult@@PAVISave@@@Z
    ?Save@Matrix3@@QAE?AW4IOResult@@PAVISave@@@Z @203 ; ?Save@Matrix3@@QAE?AW4IOResult@@PAVISave@@@Z
    ?Scale@Box2@@QAEXM@Z           @204 ; ?Scale@Box2@@QAEXM@Z
    ?Scale@Box3@@QAEXM@Z           @205 ; ?Scale@Box3@@QAEXM@Z
    ?Scale@Matrix2@@QAEXABVPoint2@@@Z @206 ; ?Scale@Matrix2@@QAEXABVPoint2@@@Z
    ?Scale@Matrix3@@QAEXABVPoint3@@H@Z @207 ; ?Scale@Matrix3@@QAEXABVPoint3@@H@Z
    ?ScaleMatrix@@YA?AVMatrix2@@AAVPoint2@@@Z @208 ; ?ScaleMatrix@@YA?AVMatrix2@@AAVPoint2@@@Z
    ?ScaleMatrix@@YA?AVMatrix3@@ABVPoint3@@@Z @209 ; ?ScaleMatrix@@YA?AVMatrix3@@ABVPoint3@@@Z
    ?Set@BitArray@@QAEXH@Z         @210 ; ?Set@BitArray@@QAEXH@Z
    ?Set@BitArray@@QAEXHH@Z        @211 ; ?Set@BitArray@@QAEXHH@Z
    ?SetAll@BitArray@@QAEXXZ       @212 ; ?SetAll@BitArray@@QAEXXZ
    ?SetColumn@Matrix3@@QAEXHUPoint4@@@Z @213 ; ?SetColumn@Matrix3@@QAEXHUPoint4@@@Z
    ?SetEmpty@Box2@@QAEXXZ         @214 ; ?SetEmpty@Box2@@QAEXXZ
    ?SetNumRevs@AngAxis@@QAEXH@Z   @215 ; ?SetNumRevs@AngAxis@@QAEXH@Z
    ?SetRow@Matrix3@@QAEXHVPoint3@@@Z @216 ; ?SetRow@Matrix3@@QAEXHVPoint3@@@Z
    ?SetSize@BitArray@@QAEXHH@Z    @217 ; ?SetSize@BitArray@@QAEXHH@Z
    ?Slerp@@YA?AVQuat@@ABV1@0M@Z   @218 ; ?Slerp@@YA?AVQuat@@ABV1@0M@Z
    ?Squad@@YA?AVQuat@@ABV1@000M@Z @219 ; ?Squad@@YA?AVQuat@@ABV1@000M@Z
    ?TransMatrix@@YA?AVMatrix2@@ABVPoint2@@@Z @220 ; ?TransMatrix@@YA?AVMatrix2@@ABVPoint2@@@Z
    ?TransMatrix@@YA?AVMatrix3@@ABVPoint3@@@Z @221 ; ?TransMatrix@@YA?AVMatrix3@@ABVPoint3@@@Z
    ?TransformQuat@@YA?AVQuat@@ABVMatrix3@@ABV1@@Z @222 ; ?TransformQuat@@YA?AVQuat@@ABVMatrix3@@ABV1@@Z
    ?Translate@Box2@@QAEXVIPoint2@@@Z @223 ; ?Translate@Box2@@QAEXVIPoint2@@@Z
    ?Translate@Box3@@QAEXABVPoint3@@@Z @224 ; ?Translate@Box3@@QAEXABVPoint3@@@Z
    ?Translate@Matrix2@@QAEXABVPoint2@@@Z @225 ; ?Translate@Matrix2@@QAEXABVPoint2@@@Z
    ?Translate@Matrix3@@QAEXABVPoint3@@@Z @226 ; ?Translate@Matrix3@@QAEXABVPoint3@@@Z
    ?VectorTransform@@YA?AVPoint2@@ABVMatrix2@@ABV1@@Z @227 ; ?VectorTransform@@YA?AVPoint2@@ABVMatrix2@@ABV1@@Z
    ?VectorTransform@@YA?AVPoint3@@ABVMatrix3@@ABV1@@Z @228 ; ?VectorTransform@@YA?AVPoint3@@ABVMatrix3@@ABV1@@Z
    ?XFormMat@@YA?AVMatrix3@@ABV1@0@Z @229 ; ?XFormMat@@YA?AVMatrix3@@ABV1@0@Z
    ?Zero@Matrix2@@QAEXXZ          @230 ; ?Zero@Matrix2@@QAEXXZ
    ?Zero@Matrix3@@QAEXXZ          @231 ; ?Zero@Matrix3@@QAEXXZ
    ?qorthog@@YA?AVQuat@@ABV1@ABVPoint3@@@Z @232 ; ?qorthog@@YA?AVQuat@@ABV1@ABVPoint3@@@Z
    ?squadrev@@YA?AVQuat@@MABVPoint3@@ABV1@111M@Z @233 ; ?squadrev@@YA?AVQuat@@MABVPoint3@@ABV1@111M@Z
