LIBRARY     GFX.DLL

EXPORTS
    ??0Camera@@QAE@XZ              @1   ; ??0Camera@@QAE@XZ
    ??0GWinSetup@@QAE@XZ           @2   ; ??0GWinSetup@@QAE@XZ
    ??0HRILight@@QAE@XZ            @3   ; ??0HRILight@@QAE@XZ
    ??0HRIWindow@@QAE@PAUHWND__@@AAVGWinSetup@@@Z @4   ; ??0HRIWindow@@QAE@PAUHWND__@@AAVGWinSetup@@@Z
    ??0Light@@QAE@XZ               @5   ; ??0Light@@QAE@XZ
    ??0Material@@QAE@XZ            @6   ; ??0Material@@QAE@XZ
    ??1HRIWindow@@UAE@XZ           @7   ; ??1HRIWindow@@UAE@XZ
    ??1Material@@QAE@XZ            @8   ; ??1Material@@QAE@XZ
    ?config@HRIWindow@@UAEXPAUHWND__@@@Z @9   ; ?config@HRIWindow@@UAEXPAUHWND__@@@Z
    ?createGW@@YAPAVGraphicsWindow@@PAUHWND__@@AAVGWinSetup@@@Z @10  ; ?createGW@@YAPAVGraphicsWindow@@PAUHWND__@@AAVGWinSetup@@@Z
    ?distToLine@@YAHHHPAH0@Z       @11  ; ?distToLine@@YAHHHPAH0@Z
    ?enlargeUpdateRect@HRIWindow@@UAEXPAUtagRECT@@@Z @12  ; ?enlargeUpdateRect@HRIWindow@@UAEXPAUtagRECT@@@Z
    ?escape@HRIWindow@@UAEXP6AXPAX@Z0@Z @13  ; ?escape@HRIWindow@@UAEXP6AXPAX@Z0@Z
    ?fWinMarker@HRIWindow@@UAEXPAVPoint3@@W4MarkerType@@@Z @14  ; ?fWinMarker@HRIWindow@@UAEXPAVPoint3@@W4MarkerType@@@Z
    ?fWinPolygon@HRIWindow@@UAEXHPAVPoint3@@00@Z @15  ; ?fWinPolygon@HRIWindow@@UAEXHPAVPoint3@@00@Z
    ?fWinPolyline@HRIWindow@@UAEXHPAVPoint3@@00HPAH@Z @16  ; ?fWinPolyline@HRIWindow@@UAEXHPAVPoint3@@00HPAH@Z
    ?fWinText@HRIWindow@@UAEXPAVPoint3@@PAD@Z @17  ; ?fWinText@HRIWindow@@UAEXPAVPoint3@@PAD@Z
    ?freeTextureHandle@HRIWindow@@UAEXK@Z @18  ; ?freeTextureHandle@HRIWindow@@UAEXK@Z
    ?getBuf@HRIWindow@@UAEHHHPAX@Z @19  ; ?getBuf@HRIWindow@@UAEHHHPAX@Z
    ?getCameraMatrix@HRIWindow@@UAEXQAY03MPAVMatrix3@@PAHPAM3@Z @20  ; ?getCameraMatrix@HRIWindow@@UAEXQAY03MPAVMatrix3@@PAHPAM3@Z
    ?getDIB@HRIWindow@@UAEHPAUtagBITMAPINFO@@PAH@Z @21  ; ?getDIB@HRIWindow@@UAEHPAUtagBITMAPINFO@@PAH@Z
    ?getRegionRect@@YAXPAVHitRegion@@PAUtagRECT@@@Z @22  ; ?getRegionRect@@YAXPAVHitRegion@@PAUtagRECT@@@Z
    ?getTextExtents@HRIWindow@@UAEXPADPAUtagSIZE@@@Z @23  ; ?getTextExtents@HRIWindow@@UAEXPADPAUtagSIZE@@@Z
    ?getTextureHandle@HRIWindow@@UAEKPAUtagBITMAPINFO@@@Z @24  ; ?getTextureHandle@HRIWindow@@UAEKPAUtagBITMAPINFO@@@Z
    ?getTextureTiling@HRIWindow@@UAEHH@Z @25  ; ?getTextureTiling@HRIWindow@@UAEHH@Z
    ?getWinDepth@HRIWindow@@UAEKXZ @26  ; ?getWinDepth@HRIWindow@@UAEKXZ
    ?getZfromTriangle@@YAHAAVIPoint3@@000@Z @27  ; ?getZfromTriangle@@YAHAAVIPoint3@@000@Z
    ?iWinMarker@HRIWindow@@UAEXPAVIPoint3@@W4MarkerType@@@Z @28  ; ?iWinMarker@HRIWindow@@UAEXPAVIPoint3@@W4MarkerType@@@Z
    ?iWinPolygon@HRIWindow@@UAEXHPAVIPoint3@@PAVPoint3@@1@Z @29  ; ?iWinPolygon@HRIWindow@@UAEXHPAVIPoint3@@PAVPoint3@@1@Z
    ?iWinPolyline@HRIWindow@@UAEXHPAVIPoint3@@PAVPoint3@@1HPAH@Z @30  ; ?iWinPolyline@HRIWindow@@UAEXHPAVIPoint3@@PAVPoint3@@1HPAH@Z
    ?iWinText@HRIWindow@@UAEXPAVIPoint3@@PAD@Z @31  ; ?iWinText@HRIWindow@@UAEXPAVIPoint3@@PAD@Z
    ?insideTriangle@@YAHAAUtagPOINT@@000@Z @32  ; ?insideTriangle@@YAHAAUtagPOINT@@000@Z
    ?insideTriangle@@YAHAAVIPoint3@@000@Z @33  ; ?insideTriangle@@YAHAAVIPoint3@@000@Z
    ?interpWorld@HRIWindow@@UAEMPAVPoint3@@0M0@Z @34  ; ?interpWorld@HRIWindow@@UAEMPAVPoint3@@0M0@Z
    ?isPerspectiveView@HRIWindow@@UAEHXZ @35  ; ?isPerspectiveView@HRIWindow@@UAEHXZ
    ?lightVertex@HRIWindow@@UAEXABVPoint3@@0AAV2@@Z @36  ; ?lightVertex@HRIWindow@@UAEXABVPoint3@@0AAV2@@Z
    ?lineCrossesRect@@YAHPAUtagRECT@@PAH1@Z @37  ; ?lineCrossesRect@@YAHPAUtagRECT@@PAH1@Z
    ?makeMatrix@Camera@@AAEXXZ     @38  ; ?makeMatrix@Camera@@AAEXXZ
    ?marker@HRIWindow@@UAEXPAVPoint3@@W4MarkerType@@@Z @39  ; ?marker@HRIWindow@@UAEXPAVPoint3@@W4MarkerType@@@Z
    ?pointInRegion@@YAHHHPAVHitRegion@@@Z @40  ; ?pointInRegion@@YAHHHPAVHitRegion@@@Z
    ?polygon@HRIWindow@@UAEXHPAVPoint3@@00@Z @41  ; ?polygon@HRIWindow@@UAEXHPAVPoint3@@00@Z
    ?polyline@HRIWindow@@UAEXHPAVPoint3@@00HPAH@Z @42  ; ?polyline@HRIWindow@@UAEXHPAVPoint3@@00HPAH@Z
    ?querySupport@HRIWindow@@UAEHH@Z @43  ; ?querySupport@HRIWindow@@UAEHH@Z
    ?segCrossesCircle@@YAHHHHPAH0@Z @44  ; ?segCrossesCircle@@YAHHHHPAH0@Z
    ?setBackgroundDIB@HRIWindow@@UAEHPAUtagBITMAPINFO@@@Z @45  ; ?setBackgroundDIB@HRIWindow@@UAEHPAUtagBITMAPINFO@@@Z
    ?setBuf@HRIWindow@@UAEHHHPAXPAUtagRECT@@@Z @46  ; ?setBuf@HRIWindow@@UAEHHHPAXPAUtagRECT@@@Z
    ?setCamera@HRIWindow@@UAEXABVCamera@@@Z @47  ; ?setCamera@HRIWindow@@UAEXABVCamera@@@Z
    ?setCameraMatrix@HRIWindow@@UAEXQAY03MPAVMatrix3@@HMM@Z @48  ; ?setCameraMatrix@HRIWindow@@UAEXQAY03MPAVMatrix3@@HMM@Z
    ?setColor@HRIWindow@@UAEXW4ColorType@@MMM@Z @49  ; ?setColor@HRIWindow@@UAEXW4ColorType@@MMM@Z
    ?setLight@HRIWindow@@UAEXHPBVLight@@@Z @50  ; ?setLight@HRIWindow@@UAEXHPBVLight@@@Z
    ?setMaterial@HRIWindow@@UAEXABVMaterial@@@Z @51  ; ?setMaterial@HRIWindow@@UAEXABVMaterial@@@Z
    ?setRndLimits@HRIWindow@@UAEXK@Z @52  ; ?setRndLimits@HRIWindow@@UAEXK@Z
    ?setTexTransform@HRIWindow@@UAEXABVMatrix3@@@Z @53  ; ?setTexTransform@HRIWindow@@UAEXABVMatrix3@@@Z
    ?setTextureByHandle@HRIWindow@@UAEHK@Z @54  ; ?setTextureByHandle@HRIWindow@@UAEHK@Z
    ?setTextureDIB@HRIWindow@@UAEHPAUtagBITMAPINFO@@@Z @55  ; ?setTextureDIB@HRIWindow@@UAEHPAUtagBITMAPINFO@@@Z
    ?setTextureTiling@HRIWindow@@UAEHHHH@Z @56  ; ?setTextureTiling@HRIWindow@@UAEHHHH@Z
    ?setTransform@HRIWindow@@UAEXABVMatrix3@@@Z @57  ; ?setTransform@HRIWindow@@UAEXABVMatrix3@@@Z
    ?setViewport@HRIWindow@@UAEXHHHH@Z @58  ; ?setViewport@HRIWindow@@UAEXHHHH@Z
    ?text@HRIWindow@@UAEXPAVPoint3@@PAD@Z @59  ; ?text@HRIWindow@@UAEXPAVPoint3@@PAD@Z
    ?transPointFWin@HRIWindow@@UAEKPBVPoint3@@PAV2@@Z @60  ; ?transPointFWin@HRIWindow@@UAEKPBVPoint3@@PAV2@@Z
    ?transPointIWin@HRIWindow@@UAEKPBVPoint3@@PAVIPoint3@@@Z @61  ; ?transPointIWin@HRIWindow@@UAEKPBVPoint3@@PAVIPoint3@@@Z
    ?updateScreen@HRIWindow@@UAEXXZ @62  ; ?updateScreen@HRIWindow@@UAEXXZ
