LIBRARY i4_core
EXPORTS
??2@YAPAXIPADH@Z
??3@YAXPAXPADH@Z
?inspect_memory@@YAXXZ
?small_allocation_summary@@YAXAAHAAPAH@Z
?i4_malloc_uninit@@YAXXZ
?i4_mem_cleanup@@YAXHPAX@Z
?i4_set_min_memory_required@@YAXH@Z
?i4_set_max_memory_used@@YAXH@Z
?i4_malloc_init@@YAXXZ
??1i4_memory_init_class@@UAE@XZ
??0i4_memory_init_class@@QAE@XZ
?init_type@i4_memory_init_class@@UAEHXZ
?init@i4_memory_init_class@@UAEXXZ
?uninit@i4_memory_init_class@@UAEXXZ
??_Gi4_memory_init_class@@UAEPAXI@Z
?i4_available@@YAJXZ
?i4_largest_free_block@@YAJXZ
?i4_allocated@@YAJXZ
?i4_malloc@@YAPAXKPADH@Z
?i4_free@@YAXPAX@Z
?i4_realloc@@YAPAXPAXKPADH@Z
?dmem_report@@YAXXZ
?i4_mem_report@@YAXPAD@Z
?small_ptr_size@@YAJPAX@Z
?valid_ptr@@YAHPAX@Z
?valid_memory@@YAHPAX@Z
??0i4_grow_heap_class@@QAE@KK@Z
??0heap@i4_grow_heap_class@@QAE@KPAD@Z
?malloc@i4_grow_heap_class@@QAEPAXKPAD@Z
?start@i4_profile_class@@QAEXXZ
?stop@i4_profile_class@@QAEXXZ
?clear@i4_grow_heap_class@@QAEXXZ
??_Gheap@i4_grow_heap_class@@QAEPAXI@Z
??1heap@i4_grow_heap_class@@QAE@XZ
?valid_ptr@i4_block_manager_class@@QAEHPAX@Z
?inspect@i4_block_manager_class@@QAEXXZ
?report@i4_block_manager_class@@QAEXPAVi4_file_class@@@Z
?pointer_size@i4_block_manager_class@@QAEJPAX@Z
?largest_free_block@i4_block_manager_class@@QAEJXZ
?available@i4_block_manager_class@@QAEJXZ
?allocated@i4_block_manager_class@@QAEJXZ
?init@i4_block_manager_class@@QAEXPAXJ@Z
?alloc@i4_block_manager_class@@QAEPAXJPAD@Z
?free@i4_block_manager_class@@QAEXPAX@Z
??0?$i4_isl_list@Vheap@i4_grow_heap_class@@@@QAE@XZ
?end@?$i4_isl_list@Vheap@i4_grow_heap_class@@@@QBE?AViterator@1@XZ
?begin@?$i4_isl_list@Vheap@i4_grow_heap_class@@@@QBE?AViterator@1@XZ
?erase_after@?$i4_isl_list@Vheap@i4_grow_heap_class@@@@QAEXViterator@1@@Z
?insert@?$i4_isl_list@Vheap@i4_grow_heap_class@@@@QAEXAAVheap@i4_grow_heap_class@@@Z
??0iterator@?$i4_isl_list@Vheap@i4_grow_heap_class@@@@QAE@ABV01@@Z
??9iterator@?$i4_isl_list@Vheap@i4_grow_heap_class@@@@QBEHABV01@@Z
??Diterator@?$i4_isl_list@Vheap@i4_grow_heap_class@@@@QBEAAVheap@i4_grow_heap_class@@XZ
??Citerator@?$i4_isl_list@Vheap@i4_grow_heap_class@@@@QBEPAVheap@i4_grow_heap_class@@XZ
??Eiterator@?$i4_isl_list@Vheap@i4_grow_heap_class@@@@QAEAAV01@XZ
??0iterator@?$i4_isl_list@Vheap@i4_grow_heap_class@@@@QAE@PAVheap@i4_grow_heap_class@@@Z
??0i4_static_file_class@@QAE@XZ
?abort@i4_file_class@@UAEXXZ
??1i4_static_file_class@@UAE@XZ
??1i4_file_class@@UAE@XZ
??_Gi4_file_class@@UAEPAXI@Z
?open@i4_static_file_class@@QAEPAV1@PBD@Z
?read@i4_static_file_class@@UAEKPAXK@Z
?write@i4_static_file_class@@UAEKPBXK@Z
?seek@i4_static_file_class@@UAEKK@Z
?size@i4_static_file_class@@UAEKXZ
?tell@i4_static_file_class@@UAEKXZ
??_Gi4_static_file_class@@UAEPAXI@Z
??0i4_file_class@@QAE@XZ
?to_lower@i4_char@@QBE?AV1@XZ
?to_upper@i4_char@@QBE?AV1@XZ
??2node@i4_string_manager_class@@SAPAXI@Z
??3node@i4_string_manager_class@@SAXPAX@Z
??1node@i4_string_manager_class@@QAE@XZ
??2array_node@i4_string_manager_class@@SAPAXI@Z
??3array_node@i4_string_manager_class@@SAXPAX@Z
??1array_node@i4_string_manager_class@@QAE@XZ
?strstr@i4_const_str@@QBE?AViterator@1@ABV1@@Z
?vsprintf@i4_const_str@@QBEPAVi4_str@@KAAPAD@Z
?sprintf@i4_const_str@@QBAPAVi4_str@@KZZ
?read_ascii@iterator@i4_const_str@@QAEKPADK@Z
?read_string@iterator@i4_const_str@@QAEPAVi4_str@@XZ
??0i4_char@@QAE@E@Z
?value@i4_char@@QBEGXZ
?is_space@i4_char@@QBEEXZ
??8i4_char@@QBEEABV0@@Z
?read_number@iterator@i4_const_str@@QAEJE@Z
?read_float@iterator@i4_const_str@@QAENE@Z
??Oi4_char@@QBEEABV0@@Z
??Mi4_char@@QBEEABV0@@Z
??0iterator@i4_const_str@@QAE@ABV01@@Z
??8iterator@i4_const_str@@QBEHABV01@@Z
??9iterator@i4_const_str@@QBEHABV01@@Z
??Eiterator@i4_const_str@@QAEAAV01@XZ
?get@iterator@i4_const_str@@QBE?AVi4_char@@XZ
??1i4_const_str@@UAE@XZ
?end@i4_const_str@@QBE?BViterator@1@XZ
??0iterator@i4_const_str@@QAE@PAD@Z
?begin@i4_const_str@@QBE?BViterator@1@XZ
?length@i4_const_str@@QBEKXZ
?alloc@i4_str@@IAEXG@Z
?init_from_string@i4_str@@IAEXABVi4_const_str@@G@Z
??_Gi4_const_str@@UAEPAXI@Z
??0i4_str@@QAE@PBD@Z
??0i4_const_str@@IAE@XZ
??0i4_str@@QAE@Viterator@i4_const_str@@0G@Z
??0i4_const_str@@QAE@PBD@Z
??0i4_str@@QAE@ABVi4_const_str@@G@Z
?insert@i4_str@@QAEXAAViterator@1@Vi4_char@@@Z
??Fiterator@i4_const_str@@QAEAAV01@XZ
??0iterator@i4_str@@QAE@ABV01@@Z
??0iterator@i4_str@@QAE@PAD@Z
?set@iterator@i4_str@@QAEXVi4_char@@@Z
?end@i4_str@@QBE?BViterator@1@XZ
??_Gi4_str@@UAEPAXI@Z
?insert@i4_str@@QAEXAAViterator@1@ABVi4_const_str@@@Z
?ptr_diff@i4_const_str@@QBEJViterator@1@0@Z
?begin@i4_str@@QBE?BViterator@1@XZ
??_Gnode@i4_string_manager_class@@QAEPAXI@Z
??_Garray_node@i4_string_manager_class@@QAEPAXI@Z
?alloc@i4_linear_allocator@@QAEPAXXZ
?init@PreBlock@i4_linear_allocator@@QAEPAXKPAV12@KPAX@Z
?GetPtr@PreBlock@i4_linear_allocator@@QAEPAXHH@Z
?free@i4_linear_allocator@@QAEXPAX@Z
?valid_pointer@PreBlock@i4_linear_allocator@@QAEHPAXH@Z
?remove@i4_str@@QAEXViterator@1@0@Z
?to_lower@i4_str@@QAEXXZ
?to_upper@i4_str@@QAEXXZ
??1i4_str@@UAE@XZ
?get@i4_string_manager_class@@QAEABVi4_const_str@@PBD@Z
?show_node@i4_string_manager_class@@AAEXPAVnode@1@@Z
?show_nodes@i4_string_manager_class@@AAEXXZ
?get_array@i4_string_manager_class@@QAEPAVi4_const_str@@PBD@Z
?init@i4_string_manager_class@@UAEXXZ
??0i4_linear_allocator@@QAE@KKKPAD@Z
??1i4_string_manager_class@@UAE@XZ
?init_type@i4_string_manager_class@@UAEHXZ
??_Gi4_string_manager_class@@UAEPAXI@Z
??_Gi4_grow_heap_class@@QAEPAXI@Z
??1i4_grow_heap_class@@QAE@XZ
?uninit@i4_string_manager_class@@UAEXXZ
?delete_node@i4_string_manager_class@@AAEXPAVnode@1@@Z
?delete_array_node@i4_string_manager_class@@AAEXPAVarray_node@1@@Z
??_Gi4_linear_allocator@@QAEPAXI@Z
??1i4_linear_allocator@@QAE@XZ
??0i4_string_manager_class@@QAE@XZ
?alloc_str@i4_string_manager_class@@AAEPADPAD@Z
?add_node@i4_string_manager_class@@AAEXPAD0@Z
?new_node@i4_string_manager_class@@AAEPAVnode@1@PADABVi4_const_str@@@Z
??0node@i4_string_manager_class@@QAE@PADABVi4_const_str@@@Z
??0i4_const_str@@QAE@ABV0@@Z
?add_array_node@i4_string_manager_class@@AAEXPADPAPADK@Z
?ALIGN_FORWARD@@YAPAXPAX@Z
?new_array_node@i4_string_manager_class@@AAEPAVarray_node@1@PADPAPAD@Z
??0array_node@i4_string_manager_class@@QAE@PADPAPAD@Z
?expand_macro@i4_string_manager_class@@AAEXAAPAD0AAKPAD@Z
?null@i4_const_str@@QBEEXZ
?get_char@i4_string_manager_class@@AAEXAAPAD0AAKPAD@Z
?read_array@i4_string_manager_class@@AAEXAAPADPAPADAAK2PAD3@Z
?get_token@i4_string_manager_class@@AAEXAAPAD0AAKPAD@Z
?space_char@@YAED@Z
?load_buffer@i4_string_manager_class@@QAEEPAXPAD@Z
?load@i4_string_manager_class@@QAEEABVi4_const_str@@@Z
?load@i4_string_manager_class@@QAEEPAD@Z
?i4_os_string@@YAPADABVi4_const_str@@PADH@Z
?i4_from_ascii@@YAPAVi4_str@@PBD@Z
??0i4_str@@IAE@G@Z
?i4gets@@YAABVi4_const_str@@PADE@Z
?i4getn@@YAHPADE@Z
?i4_str_checksum@@YAKABVi4_const_str@@@Z
?destroy_all@?$i4_isl_list@Vheap@i4_grow_heap_class@@@@QAEXXZ
?erase@?$i4_isl_list@Vheap@i4_grow_heap_class@@@@QAEXXZ
??0i4_device_class@@QAE@XZ
??_Gi4_device_class@@UAEPAXI@Z
??1i4_device_class@@UAE@XZ
?send_event_to_agents@i4_device_class@@QAEXPAVi4_event@@K@Z
??1i4_event_handler_class@@UAE@XZ
?copy@i4_event_reaction_class@@QAEPAV1@XZ
??1i4_event_reaction_class@@QAE@XZ
??0i4_event_reaction_class@@QAE@PAVi4_event_handler_class@@PAVi4_event@@@Z
??0i4_event_reaction_class@@QAE@PAVi4_event_handler_class@@K@Z
?destroy_ref@i4_event_handler_private_reference_class@@IAEXXZ
?reference@i4_event_handler_private_reference_class@@IAEXPAVi4_event_handler_class@@@Z
??0i4_do_command_event_class@@QAE@PADH@Z
??_Gi4_do_command_event_class@@UAEPAXI@Z
??1i4_do_command_event_class@@UAE@XZ
??0i4_do_command_event_class@@QAE@PADHAAVi4_time_class@@@Z
?copy@i4_do_command_event_class@@UAEPAVi4_event@@XZ
??0i4_end_command_event_class@@QAE@PADHAAVi4_time_class@@@Z
??_Gi4_end_command_event_class@@UAEPAXI@Z
??1i4_end_command_event_class@@UAE@XZ
??0i4_end_command_event_class@@QAE@PADH@Z
??1i4_kernel_device_class@@UAE@XZ
??1?$i4_stack@PAVi4_window_class@@@@QAE@XZ
?send@i4_kernel_device_class@@QAEXPAVi4_event_reaction_class@@@Z
?show_pending@i4_kernel_device_class@@AAEXXZ
?deque_events@i4_kernel_device_class@@QAEXPAVi4_event_handler_class@@@Z
??_Gdefered_event@@QAEPAXI@Z
??1defered_event@@QAE@XZ
?send_event@i4_kernel_device_class@@QAEXPAVi4_event_handler_class@@PAVi4_event@@@Z
??0defered_event@@QAE@PAVi4_event_handler_class@@PAVi4_event@@@Z
?process_events@i4_kernel_device_class@@UAEEXZ
?set_modal@i4_kernel_device_class@@UAEXPAVi4_window_class@@@Z
?modal@i4_kernel_device_class@@UAEPAVi4_window_class@@XZ
?end_modal@i4_kernel_device_class@@UAEXPAVi4_window_class@@@Z
?flush_events@i4_kernel_device_class@@QAEEXZ
?request_events@i4_kernel_device_class@@UAEXPAVi4_event_handler_class@@K@Z
?unrequest_events@i4_kernel_device_class@@UAEXPAVi4_event_handler_class@@K@Z
?add_device@i4_kernel_device_class@@QAEXPAVi4_device_class@@@Z
?remove_device@i4_kernel_device_class@@QAEXPAVi4_device_class@@@Z
?not_idle@i4_kernel_device_class@@QAEXXZ
?check_for_idle@i4_kernel_device_class@@IAEXXZ
?set_milliseconds_before_idle_events_sent@i4_kernel_device_class@@QAEXK@Z
?init@i4_kernel_device_class@@UAEXXZ
?uninit@i4_kernel_device_class@@UAEXXZ
??0i4_kernel_device_class@@QAE@XZ
??_Gi4_kernel_device_class@@UAEPAXI@Z
?broadcast_event_type@i4_kernel_device_class@@QAEXPAVi4_event@@K@Z
?delete_handler@i4_kernel_device_class@@QAEXPAVi4_event_handler_class@@@Z
??0event_handler_delete_node@@QAE@PAVi4_event_handler_class@@@Z
?i4_get_cpu_info@@YAXPAUi4_cpu_info_struct@@@Z
?x86_can_do_cpuid@@YAKXZ
?x86_get_cpu_type@@YAKXZ
?x86_get_cpu_flags@@YAKK@Z
?i4_win32_get_cpu_info@@YAXPAUi4_cpu_info_struct@@@Z
??1i4_key_man_class@@UAE@XZ
??0i4_key_man_class@@QAE@XZ
??_Gi4_key_man_class@@UAEPAXI@Z
?end_actives@i4_key_man_class@@IAEXHAAVi4_time_class@@@Z
?get_modifiers@i4_key_man_class@@IAEXH@Z
?add_active@i4_key_man_class@@IAEXPAUkey_item@1@AAVi4_time_class@@@Z
?end_all_commands@i4_key_man_class@@IAEXXZ
?receive_event@i4_key_man_class@@MAEXPAVi4_event@@@Z
?thinking@i4_event_handler_class@@QAEEXZ
??0i4_event_handler_class@@QAE@XZ
?receive_event@i4_event_handler_class@@UAEXPAVi4_event@@@Z
?name@i4_event_handler_class@@UAEPADXZ
??_Gi4_event_handler_class@@UAEPAXI@Z
??0?$i4_event_handler_reference_class@Vi4_event_handler_class@@@@QAE@XZ
??0i4_event_handler_private_reference_class@@QAE@XZ
?acquire_modifiers_for_contexts@i4_key_man_class@@IAEHHHPAD@Z
??1?$i4_event_handler_reference_class@Vi4_event_handler_class@@@@QAE@XZ
??1i4_event_handler_private_reference_class@@QAE@XZ
?receive_event@i4_device_class@@UAEXPAVi4_event@@@Z
?use_modifiers_for_contexts@i4_key_man_class@@IAEHHHPAD@Z
?load@i4_key_man_class@@QAEEABVi4_const_str@@@Z
??0i4_str@@QAE@ABVi4_const_str@@@Z
?uninit@i4_key_man_class@@QAEXXZ
??_G?$i4_array@PAD@@QAEPAXI@Z
??_G?$i4_array@Ucontext@i4_key_man_class@@@@QAEPAXI@Z
?alloc_str@i4_key_man_class@@IAEPADPAD@Z
?check_init@i4_key_man_class@@IAEXXZ
?get_context_id@i4_key_man_class@@QAEHPAD@Z
?get_command_id@i4_key_man_class@@QAEHPAD@Z
?get_key_for_command@i4_key_man_class@@QAEEHAAG0@Z
?add@i4_key_matchup_class@@QAEXPADH@Z
?remap@i4_key_matchup_class@@QAEHH@Z
?i4_get_key_name@@YAPADGGPAD@Z
?i4_key_name@@YAPAVi4_str@@GG@Z
?i4_find_key@@YAEABVi4_str@@AAG1@Z
??9i4_char@@QBEEABV0@@Z
??Diterator@i4_const_str@@QBE?AVi4_char@@XZ
?i4_key_translate@@YAGGEAAG@Z
??0i4_time_class@@QAE@ABV0@@Z
?get@?$i4_event_handler_reference_class@Vi4_event_handler_class@@@@QAEPAVi4_event_handler_class@@XZ
?reference@?$i4_event_handler_reference_class@Vi4_event_handler_class@@@@QAEXPAVi4_event_handler_class@@@Z
??0i4_time_class@@QAE@XZ
??0?$i4_stack@PAVi4_window_class@@@@QAE@HH@Z
?when@i4_event@@UAE?AW4dispatch_time@1@XZ
??1i4_event@@UAE@XZ
?push@?$i4_stack@PAVi4_window_class@@@@QAEHPAVi4_window_class@@@Z
?move@i4_event@@UAEXHH@Z
??_Gi4_event@@UAEPAXI@Z
?top@?$i4_stack@PAVi4_window_class@@@@QAEAAPAVi4_window_class@@XZ
?pop@?$i4_stack@PAVi4_window_class@@@@QAEPAVi4_window_class@@XZ
?uninit@?$i4_array@PAVi4_window_class@@@@QAEXXZ
??1?$i4_array@PAVi4_window_class@@@@QAE@XZ
?size@?$i4_array@Ucontext@i4_key_man_class@@@@QBEHXZ
??A?$i4_array@Ucontext@i4_key_man_class@@@@QBEAAUcontext@i4_key_man_class@@H@Z
??0?$i4_array@Ucontext@i4_key_man_class@@@@QAE@HH@Z
??0i4_event@@QAE@XZ
??1?$i4_array@Ucontext@i4_key_man_class@@@@QAE@XZ
?add@?$i4_array@Ucontext@i4_key_man_class@@@@QAEPAUcontext@i4_key_man_class@@XZ
?insert@?$i4_binary_tree@Ucommand_matchup@i4_key_matchup_class@@@@QAEPAUcommand_matchup@i4_key_matchup_class@@PAU23@@Z
?find@?$i4_binary_tree@Ucommand_matchup@i4_key_matchup_class@@@@QAEPAUcommand_matchup@i4_key_matchup_class@@PBU23@@Z
??0?$i4_isl_list@Udefered_event@@@@QAE@XZ
?end@?$i4_isl_list@Udefered_event@@@@QBE?AViterator@1@XZ
?begin@?$i4_isl_list@Udefered_event@@@@QBE?AViterator@1@XZ
?erase_after@?$i4_isl_list@Udefered_event@@@@QAEXViterator@1@@Z
?insert_end@?$i4_isl_list@Udefered_event@@@@QAEXAAUdefered_event@@@Z
?erase@?$i4_isl_list@Udefered_event@@@@QAEXXZ
??0iterator@?$i4_isl_list@Udefered_event@@@@QAE@XZ
??0iterator@?$i4_isl_list@Udefered_event@@@@QAE@ABV01@@Z
??8iterator@?$i4_isl_list@Udefered_event@@@@QBEHABV01@@Z
??9iterator@?$i4_isl_list@Udefered_event@@@@QBEHABV01@@Z
??Diterator@?$i4_isl_list@Udefered_event@@@@QBEAAUdefered_event@@XZ
??Citerator@?$i4_isl_list@Udefered_event@@@@QBEPAUdefered_event@@XZ
??Eiterator@?$i4_isl_list@Udefered_event@@@@QAEAAV01@XZ
??0?$i4_isl_list@Uevent_handler_delete_node@@@@QAE@XZ
?end@?$i4_isl_list@Uevent_handler_delete_node@@@@QBE?AViterator@1@XZ
?begin@?$i4_isl_list@Uevent_handler_delete_node@@@@QBE?AViterator@1@XZ
?erase_after@?$i4_isl_list@Uevent_handler_delete_node@@@@QAEXViterator@1@@Z
?insert@?$i4_isl_list@Uevent_handler_delete_node@@@@QAEXAAUevent_handler_delete_node@@@Z
?type@i4_do_command_event_class@@UAE?AW4event_type@i4_event@@XZ
?name@i4_do_command_event_class@@UAEPADXZ
?erase@?$i4_isl_list@Uevent_handler_delete_node@@@@QAEXXZ
?type@i4_end_command_event_class@@UAE?AW4event_type@i4_event@@XZ
??0iterator@?$i4_isl_list@Uevent_handler_delete_node@@@@QAE@XZ
?copy@i4_end_command_event_class@@UAEPAVi4_event@@XZ
??0iterator@?$i4_isl_list@Uevent_handler_delete_node@@@@QAE@ABV01@@Z
??9iterator@?$i4_isl_list@Uevent_handler_delete_node@@@@QBEHABV01@@Z
?name@i4_end_command_event_class@@UAEPADXZ
??Diterator@?$i4_isl_list@Uevent_handler_delete_node@@@@QBEAAUevent_handler_delete_node@@XZ
??Citerator@?$i4_isl_list@Uevent_handler_delete_node@@@@QBEPAUevent_handler_delete_node@@XZ
??Eiterator@?$i4_isl_list@Uevent_handler_delete_node@@@@QAEAAV01@XZ
?size@?$i4_array@PAD@@QBEHXZ
??A?$i4_array@PAD@@QBEAAPADH@Z
??0?$i4_array@PAD@@QAE@HH@Z
??1?$i4_array@PAD@@QAE@XZ
?add@?$i4_array@PAD@@QAEHPAD@Z
??0?$i4_array@PAVi4_window_class@@@@QAE@HH@Z
?add@?$i4_array@PAVi4_window_class@@@@QAEHPAVi4_window_class@@@Z
?uninit@?$i4_array@Ucontext@i4_key_man_class@@@@QAEXXZ
?grow_bigger@?$i4_array@Ucontext@i4_key_man_class@@@@QAEXXZ
??0iterator@?$i4_isl_list@Udefered_event@@@@QAE@PAUdefered_event@@@Z
??0iterator@?$i4_isl_list@Uevent_handler_delete_node@@@@QAE@PAUevent_handler_delete_node@@@Z
?uninit@?$i4_array@PAD@@QAEXXZ
?add@?$i4_array@PAD@@QAEPAPADXZ
?add@?$i4_array@PAVi4_window_class@@@@QAEPAPAVi4_window_class@@XZ
?grow_bigger@?$i4_array@PAD@@QAEXXZ
?grow_bigger@?$i4_array@PAVi4_window_class@@@@QAEXXZ
??0i4_user_message_event_class@@QAE@K@Z
?type@i4_user_message_event_class@@UAE?AW4event_type@i4_event@@XZ
?copy@i4_user_message_event_class@@UAEPAVi4_event@@XZ
?name@i4_user_message_event_class@@UAEPADXZ
??_Gi4_user_message_event_class@@UAEPAXI@Z
??1i4_user_message_event_class@@UAE@XZ
??0i4_user_idle_event_class@@QAE@XZ
?type@i4_user_idle_event_class@@UAE?AW4event_type@i4_event@@XZ
?copy@i4_user_idle_event_class@@UAEPAVi4_event@@XZ
?name@i4_user_idle_event_class@@UAEPADXZ
??_Gi4_user_idle_event_class@@UAEPAXI@Z
??1i4_user_idle_event_class@@UAE@XZ
??0response_type@i4_kernel_device_class@@QAE@PAVi4_event_handler_class@@PAU01@@Z
?init_type@i4_kernel_device_class@@UAEHXZ
??0key_item@i4_key_man_class@@QAE@GGEGPAU01@@Z
?process_events@i4_key_man_class@@MAEEXZ
?name@i4_key_man_class@@UAEPADXZ
??0command_matchup@i4_key_matchup_class@@QAE@GH@Z
?compare@command_matchup@i4_key_matchup_class@@QBEHPBU12@@Z
??0i4_debug_file_class@@QAE@XZ
?read@i4_debug_file_class@@UAEKPAXK@Z
?write@i4_debug_file_class@@UAEKPBXK@Z
?seek@i4_debug_file_class@@UAEKK@Z
?size@i4_debug_file_class@@UAEKXZ
?tell@i4_debug_file_class@@UAEKXZ
??_Gi4_debug_file_class@@UAEPAXI@Z
??1i4_debug_file_class@@UAE@XZ
i4_default_error 
i4_default_warning 
?i4_error_old@@YAHPBDZZ
?i4_warning_old@@YAHPBDZZ
i4_get_error_function_pointer 
i4_get_warning_function_pointer 
i4_set_error_function 
i4_get_error_function 
i4_set_warning_function 
i4_get_warning_function 
?i4_default_alert@@YAHABVi4_const_str@@@Z
?i4_alert@@YAXABVi4_const_str@@KZZ
?i4_set_alert_function@@YAXP6AHABVi4_const_str@@@Z@Z
?null_function@@YAXXZ
?MSVC_exec@@YAXXZ
?i4_check_sum32@@YAKPAXK@Z
?i4_check_sum16@@YAGPAXK@Z
??1i4_time_device_class@@UAE@XZ
??0i4_time_device_class@@QAE@XZ
?name@i4_time_device_class@@UAEPADXZ
?reports_events@i4_time_device_class@@UAEKXZ
??_Gi4_time_device_class@@UAEPAXI@Z
??1timed_event@i4_time_device_class@@QAE@XZ
??0timed_event@i4_time_device_class@@QAE@PAVi4_event_handler_class@@PAVi4_event@@K@Z
??1i4_time_device_adder_class@@UAE@XZ
??0i4_time_device_adder_class@@QAE@XZ
?init_type@i4_time_device_adder_class@@UAEHXZ
?init@i4_time_device_adder_class@@UAEXXZ
?uninit@i4_time_device_adder_class@@UAEXXZ
??_Gtimed_event@i4_time_device_class@@QAEPAXI@Z
??_Gi4_time_device_adder_class@@UAEPAXI@Z
?cancel_event@i4_time_device_class@@QAEEABVid@1@@Z
?process_events@i4_time_device_class@@UAEEXZ
?request_event@i4_time_device_class@@QAE?AVid@1@PAVi4_event_handler_class@@PAVi4_event@@K@Z
??0id@i4_time_device_class@@QAE@PAVtimed_event@1@@Z
?get@i4_time_class@@QAEXXZ
?add_milli@i4_time_class@@QAEXJ@Z
??Mi4_time_class@@QBEEABV0@@Z
??Oi4_time_class@@QBEEABV0@@Z
?milli_diff@i4_time_class@@QBEJABV1@@Z
??0i4_time_class@@QAE@J@Z
?i4_get_system_clock@@YA_KXZ
?i4_get_clocks_per_second@@YAHXZ
?i4_sleep@@YAXH@Z
?i4_milli_sleep@@YAXH@Z
?overflow@i4_profile_stack_struct@@QAEXXZ
?top@i4_profile_stack_struct@@QAEHXZ
?underflow@i4_profile_stack_struct@@QAEXXZ
??0i4_profile_class@@QAE@PAD@Z
?called_start@i4_profile_class@@QAEXXZ
?push@i4_profile_stack_struct@@QAEXPAVi4_profile_class@@_K@Z
?get_top@i4_profile_stack_struct@@QAEPAUi4_profile_stack_item@@XZ
?called_stop@i4_profile_class@@QAEXXZ
?pop@i4_profile_stack_struct@@QAEPAUi4_profile_stack_item@@XZ
??1i4_profile_class@@QAE@XZ
?i4_profile_clear@@YAXXZ
?flush_stack@i4_profile_stack_struct@@QAEXXZ
?i4_profile_report_start@@YAXXZ
?i4_profile_report@@YAXPAD@Z
??0?$i4_isl_list@Vtimed_event@i4_time_device_class@@@@QAE@XZ
?end@?$i4_isl_list@Vtimed_event@i4_time_device_class@@@@QBE?AViterator@1@XZ
?begin@?$i4_isl_list@Vtimed_event@i4_time_device_class@@@@QBE?AViterator@1@XZ
?erase_after@?$i4_isl_list@Vtimed_event@i4_time_device_class@@@@QAEXViterator@1@@Z
?insert_end@?$i4_isl_list@Vtimed_event@i4_time_device_class@@@@QAEXAAVtimed_event@i4_time_device_class@@@Z
?erase@?$i4_isl_list@Vtimed_event@i4_time_device_class@@@@QAEXXZ
??0iterator@?$i4_isl_list@Vtimed_event@i4_time_device_class@@@@QAE@ABV01@@Z
??8iterator@?$i4_isl_list@Vtimed_event@i4_time_device_class@@@@QBEHABV01@@Z
??9iterator@?$i4_isl_list@Vtimed_event@i4_time_device_class@@@@QBEHABV01@@Z
??Diterator@?$i4_isl_list@Vtimed_event@i4_time_device_class@@@@QBEAAVtimed_event@i4_time_device_class@@XZ
??Citerator@?$i4_isl_list@Vtimed_event@i4_time_device_class@@@@QBEPAVtimed_event@i4_time_device_class@@XZ
??Eiterator@?$i4_isl_list@Vtimed_event@i4_time_device_class@@@@QAEAAV01@XZ
??0iterator@?$i4_isl_list@Vtimed_event@i4_time_device_class@@@@QAE@PAVtimed_event@i4_time_device_class@@@Z
?i4_wait_threads@@YAXXZ
?remove_thread@@YAXH@Z
?i4_thread_starter@@YAXPAX@Z
??0thread_node@@QAE@PAXK00PAU0@@Z
?i4_add_thread@@YAXP6AXPAX@ZK0@Z
?i4_thread_sleep@@YAXK@Z
?i4_thread_yield@@YAXXZ
?i4_get_thread_id@@YAHXZ
?i4_exec@@YAHAAVi4_const_str@@E0@Z
?i4_suspend_other_threads@@YAXXZ
?i4_resume_other_threads@@YAXXZ
?i4_get_main_thread_id@@YAHXZ
?i4_get_first_thread_id@@YAHXZ
?i4_get_next_thread_id@@YAEHAAH@Z
?i4_get_thread_stack@@YAXHAAPAX0@Z
??1thread_initer@@UAE@XZ
??0thread_initer@@QAE@XZ
?init_type@thread_initer@@UAEHXZ
?init@thread_initer@@UAEXXZ
?uninit@thread_initer@@UAEXXZ
??_Gthread_initer@@UAEPAXI@Z
??0i4_critical_section_class@@QAE@XZ
?lock@i4_critical_section_class@@QAIXXZ
?unlock@i4_critical_section_class@@QAIXXZ
??1i4_critical_section_class@@QAE@XZ
??0i4_signal_object@@QAE@PAD@Z
??0i4_signal_object@@QAE@PADKK@Z
?wait_signal@i4_signal_object@@QAEEXZ
?wait_signal@i4_signal_object@@QAEEK@Z
?signal@i4_signal_object@@QAEXXZ
??1i4_signal_object@@QAE@XZ
?i4_threads_supported@@YAEXZ
?i4_set_thread_priority@@YAXHW4i4_thread_priority_type@@@Z
?i4_show_init_list@@YAXXZ
?i4_init@@YAXXZ
?i4_uninit@@YAXXZ
??1i4_init_class@@UAE@XZ
??_Gi4_init_class@@UAEPAXI@Z
?i4_is_initialized@@YAEXZ
??0i4_init_class@@QAE@XZ
?init_type@i4_init_class@@UAEHXZ
?init@i4_init_class@@UAEXXZ
?uninit@i4_init_class@@UAEXXZ
??0i4_temp_file_class@@QAE@XZ
??_Gi4_temp_file_class@@UAEPAXI@Z
??0i4_temp_file_class@@QAE@KK@Z
?read@i4_temp_file_class@@UAEKPAXK@Z
?write@i4_temp_file_class@@UAEKPBXK@Z
?seek@i4_temp_file_class@@UAEKK@Z
??1i4_temp_file_class@@UAE@XZ
?read@i4_ram_file_class@@UAEKPAXK@Z
?write@i4_ram_file_class@@UAEKPBXK@Z
??0i4_ram_file_class@@QAE@PAXH@Z
??_Gi4_ram_file_class@@UAEPAXI@Z
??1i4_ram_file_class@@UAE@XZ
?async_write@i4_file_class@@UAEEPBXKP6AXKPAX@Z1@Z
?async_read@i4_file_class@@UAEEPAXKP6AXK0@Z0@Z
?read_str@i4_file_class@@QAEPAVi4_str@@K@Z
??0file_string@@QAE@G@Z
?buffer@file_string@@QAEPADXZ
?set_len@file_string@@QAEXG@Z
??_Gfile_string@@UAEPAXI@Z
??1file_string@@UAE@XZ
?read_counted_str@i4_file_class@@QAEPAVi4_str@@XZ
?write_str@i4_file_class@@QAEKABVi4_const_str@@@Z
?buffer@file_write_string@@QAEPADXZ
?write_counted_str@i4_file_class@@QAEKABVi4_const_str@@@Z
?printf@i4_file_class@@QAAHPADZZ
?write_format@i4_file_class@@QAAHPADZZ
?read_format@i4_file_class@@QAAHPADZZ
?i4_open@@YAPAVi4_file_class@@ABVi4_const_str@@K@Z
?i4_unlink@@YAEABVi4_const_str@@@Z
?i4_get_status@@YAEABVi4_const_str@@AAUi4_file_status_struct@@@Z
?i4_mkdir@@YAEABVi4_const_str@@@Z
?i4_copy_file@@YAEABVi4_const_str@@0@Z
?i4_get_directory@@YAEABVi4_const_str@@AAUi4_directory_struct@@EPAVi4_status_class@@@Z
?i4_split_path@@YAEABVi4_const_str@@AAUi4_filename_struct@@@Z
?i4_full_path@@YAPAVi4_str@@ABVi4_const_str@@@Z
?i4_add_file_manager@@YAXPAVi4_file_manager_class@@E@Z
?i4_remove_file_manger@@YAXPAVi4_file_manager_class@@@Z
?split_path@i4_file_manager_class@@UAEEABVi4_const_str@@AAUi4_filename_struct@@@Z
??1i4_directory_struct@@QAE@XZ
?i4_relative_path@@YAPAVi4_str@@ABVi4_const_str@@@Z
??0i4_async_reader@@QAE@PAD@Z
??_Gi4_async_reader@@UAEPAXI@Z
??1i4_async_reader@@UAE@XZ
?i4_async_reader_thread_start@@YAXPAX@Z
?init@i4_async_reader@@UAEXXZ
?uninit@i4_async_reader@@UAEXXZ
?start_read@i4_async_reader@@QAEEHPAXKP6AXK0@Z0@Z
?emulate_speeds@i4_async_reader@@AAEXAAUread_request@1@@Z
?PRIVATE_thread@i4_async_reader@@QAEXXZ
?read@i4_buffered_file_class@@UAEKPAXK@Z
?write@i4_buffered_file_class@@UAEKPBXK@Z
?seek@i4_buffered_file_class@@UAEKK@Z
?size@i4_buffered_file_class@@UAEKXZ
?tell@i4_buffered_file_class@@UAEKXZ
??1i4_buffered_file_class@@UAE@XZ
??_Gi4_buffered_file_class@@UAEPAXI@Z
??0i4_buffered_file_class@@QAE@PAVi4_file_class@@KK@Z
?i4_async_buf_read_callback@@YAXKPAX@Z
?async_read@i4_buffered_file_class@@UAEEPAXKP6AXK0@Z0@Z
??0i4_ram_file_manager_class@@QAE@XZ
?open@i4_ram_file_manager_class@@UAEPAVi4_file_class@@ABVi4_const_str@@K@Z
??1i4_ram_file_manager_class@@UAE@XZ
??_Gi4_ram_file_manager_class@@UAEPAXI@Z
??0i4_file_manager_class@@QAE@XZ
??1i4_file_manager_class@@UAE@XZ
??_Gi4_file_manager_class@@UAEPAXI@Z
??0i4_openable_ram_file_info@@QAE@PADPAXK@Z
?read@i4_sub_section_file@@UAEKPAXK@Z
?write@i4_sub_section_file@@UAEKPBXK@Z
?read_8@i4_file_class@@QAEEXZ
?seek@i4_sub_section_file@@UAEKK@Z
?read_16@i4_file_class@@QAEGXZ
?size@i4_sub_section_file@@UAEKXZ
?read_32@i4_file_class@@QAEKXZ
?tell@i4_sub_section_file@@UAEKXZ
?read_float@i4_file_class@@QAEMXZ
??0i4_sub_section_file@@QAE@PAVi4_file_class@@HH@Z
??_Gi4_sub_section_file@@UAEPAXI@Z
??1i4_sub_section_file@@UAE@XZ
?async_read@i4_sub_section_file@@UAEEPAXKP6AXK0@Z0@Z
?write_8@i4_file_class@@QAEKE@Z
?write_16@i4_file_class@@QAEKG@Z
?write_32@i4_file_class@@QAEKK@Z
?write_float@i4_file_class@@QAEKM@Z
??0i4_win32_async_reader@@QAE@PAD@Z
?read@i4_win32_async_reader@@UAEKJPAXK@Z
??1i4_win32_async_reader@@UAE@XZ
??_Gi4_win32_async_reader@@UAEPAXI@Z
??0i4_win32_file_manager_class@@QAE@XZ
?open@i4_win32_file_manager_class@@UAEPAVi4_file_class@@ABVi4_const_str@@K@Z
??0i4_win32_file_class@@QAE@K@Z
?read@i4_win32_file_class@@UAEKPAXK@Z
?write@i4_win32_file_class@@UAEKPBXK@Z
?seek@i4_win32_file_class@@UAEKK@Z
?size@i4_win32_file_class@@UAEKXZ
?tell@i4_win32_file_class@@UAEKXZ
?async_read@i4_win32_file_class@@UAEEPAXKP6AXK0@Z0@Z
??_Gi4_win32_file_class@@UAEPAXI@Z
??1i4_win32_file_class@@UAE@XZ
?unlink@i4_win32_file_manager_class@@UAEEABVi4_const_str@@@Z
?mkdir@i4_win32_file_manager_class@@UAEEABVi4_const_str@@@Z
?get_status@i4_win32_file_manager_class@@UAEEABVi4_const_str@@AAUi4_file_status_struct@@@Z
?get_directory@i4_win32_file_manager_class@@UAEEABVi4_const_str@@AAUi4_directory_struct@@EPAVi4_status_class@@@Z
?full_path@i4_win32_file_manager_class@@UAEPAVi4_str@@ABVi4_const_str@@@Z
?Get_Drive_Type@i4_win32_file_manager_class@@UAEEE@Z
?FindCDDrives@i4_win32_file_manager_class@@UAEXXZ
?get_first_cd_letter@i4_win32_file_manager_class@@UAEXPAD@Z
?get_next_cd_letter@i4_win32_file_manager_class@@UAEHPAD@Z
??1i4_win32_file_manager_class@@UAE@XZ
??_Gi4_win32_file_manager_class@@UAEPAXI@Z
?i4_rmdir@@YAEABVi4_const_str@@@Z
?i4_chdir@@YAEABVi4_const_str@@@Z
?i4_create_file_open_dialog@@YAXPAVi4_graphical_style_class@@ABVi4_const_str@@111PAVi4_event_handler_class@@KK@Z
??0open_string@@QAE@PAD@Z
??_Gopen_string@@UAEPAXI@Z
??1open_string@@UAE@XZ
?i4_create_file_save_dialog@@YAXPAVi4_graphical_style_class@@ABVi4_const_str@@1111PAVi4_event_handler_class@@KK@Z
??0?$i4_fixed_que@Uread_request@i4_async_reader@@$0BA@@@QAE@XZ
?empty@?$i4_fixed_que@Uread_request@i4_async_reader@@$0BA@@@QAEEXZ
?que@?$i4_fixed_que@Uread_request@i4_async_reader@@$0BA@@@QAEEABUread_request@i4_async_reader@@@Z
?deque@?$i4_fixed_que@Uread_request@i4_async_reader@@$0BA@@@QAEEAAUread_request@i4_async_reader@@@Z
??A?$i4_array@Ui4_file_status_struct@@@@QBEAAUi4_file_status_struct@@H@Z
??0?$i4_array@Ui4_file_status_struct@@@@QAE@HH@Z
??1?$i4_array@Ui4_file_status_struct@@@@QAE@XZ
?add@?$i4_array@Ui4_file_status_struct@@@@QAEPAUi4_file_status_struct@@XZ
??_H@YGXPAXIHP6EX0@Z@Z
?reset@?$i4_fixed_que@Uread_request@i4_async_reader@@$0BA@@@QAEXXZ
?uninit@?$i4_array@Ui4_file_status_struct@@@@QAEXXZ
?grow_bigger@?$i4_array@Ui4_file_status_struct@@@@QAEXXZ
?init_type@i4_file_manager_class@@UAEHXZ
?open@i4_file_manager_class@@UAEPAVi4_file_class@@ABVi4_const_str@@K@Z
?unlink@i4_file_manager_class@@UAEEABVi4_const_str@@@Z
?mkdir@i4_file_manager_class@@UAEEABVi4_const_str@@@Z
?get_status@i4_file_manager_class@@UAEEABVi4_const_str@@AAUi4_file_status_struct@@@Z
?get_directory@i4_file_manager_class@@UAEEABVi4_const_str@@AAUi4_directory_struct@@EPAVi4_status_class@@@Z
?full_path@i4_file_manager_class@@UAEPAVi4_str@@ABVi4_const_str@@@Z
??0read_request@i4_async_reader@@QAE@JPAXKP6AXK0@Z0@Z
??0read_request@i4_async_reader@@QAE@XZ
?size@i4_temp_file_class@@UAEKXZ
?tell@i4_temp_file_class@@UAEKXZ
?dup@i4_ram_file_class@@UAEPAVi4_file_class@@XZ
?seek@i4_ram_file_class@@UAEKK@Z
?size@i4_ram_file_class@@UAEKXZ
?tell@i4_ram_file_class@@UAEKXZ
??0i4_file_open_message_class@@QAE@KPAVi4_str@@@Z
??1i4_file_open_message_class@@UAE@XZ
?copy@i4_file_open_message_class@@UAEPAVi4_event@@XZ
??0i4_str@@QAE@ABV0@@Z
??_Gi4_file_open_message_class@@UAEPAXI@Z
??_C@_0GG@NFLF@Memory?5manager?5?3?5Sorry?5you?5do?5no@
??_C@_09LPOG@i4_malloc?$AA@
??_C@_07FILM@i4_free?$AA@
??_C@_0BP@JLKE@d?3?2golgotha?2memory__malloc?4cpp?$AA@
??_C@_0CH@HNLN@warning?5?3?5i4_malloc_init?5called?5@
??_7i4_memory_init_class@@6B@
??_C@_0CC@HJKD@i4_memory_manager?3?5Out?5of?5memory@
??_C@_06GMEK@no_mem?$AA@
??_C@_07CAMD@unknown?$AA@
??_C@_0N@GNPF@i4?5mem?5break?$AA@
??_C@_0BI@OJFG@tried?5to?5malloc?50?5bytes?$AA@
??_C@_0CL@ECFL@INTERNAL?3?5i4_free?5called?5after?5i@
??_C@_0BI@PBHC@jrealloc?5?3?5bad?5pointer?6?$AA@
??_C@_09DEAN@debug?4mem?$AA@
??_C@_0CC@GDKP@Total?5available?$DN?$CFd?0?5allocated?$DN?$CFd@
??_C@_0BC@OEF@initial?5grow?5heap?$AA@
??_C@_09BGAA@grow?5heap?$AA@
??_C@_0BI@MBAE@grow?5heap?5param?5problem?$AA@
??_C@_0BH@OGAJ@inspect?5?3?5bad?5pointer?6?$AA@
??_C@_0DI@HPEI@?$CK?$CK?$CK?$CK?$CK?$CK?$CK?$CK?$CK?$CK?$CK?$CK?$CK?$CK?$CK?$CK?5Block?5summary?5?3@
??_C@_05PKFO@FREE?6?$AA@
??_C@_0L@OKDG@allocated?6?$AA@
??_C@_05EKJL@?$CFp?5?5?5?$AA@
??_C@_0BP@GPIP@?$CK?$CK?$CK?5Small?5Block?5size?5?$DN?5?$CFd?5?$CK?$CK?$CK?6?$AA@
??_C@_01BJG@?6?$AA@
??_C@_0BI@BNKO@?$CF4d?5?5?5?$CFp?5?$CI?$CFd?$CJ?5?$CF4d?5?5?5?5?5?5?$AA@
??_C@_0DA@KBBI@?$CK?$CK?$CK?$CK?$CK?$CK?$CK?$CK?$CK?$CK?$CK?$CK?$CK?$CK?5Block?5size?5?$DN?5?$CFd?5?$CK@
??_C@_0M@OGPN@small_block?$AA@
??_C@_0CG@CJGO@Free?5big?5block?5error?4?5Already?5fr@
??_C@_0BI@HCKC@Free?5small?5block?5error?6?$AA@
??_C@_0BH@OJBK@i4_free?5?3?5bad?5pointer?6?$AA@
??_7i4_static_file_class@@6B@
??_7i4_file_class@@6B@
??_C@_02IAAH@wt?$AA@
??_C@_0BI@EMLH@Number?5format?5exception?$AA@
??_7i4_const_str@@6B@
??_7i4_str@@6B@
??_C@_0BN@NAM@Allocator?5?8?$CFs?8?5out?5of?5items?6?$AA@
??_C@_0L@LFIF@Bad?5free?$CB?6?$AA@
??_C@_0BP@JKCJ@d?3?2golgotha?2string__string?4cpp?$AA@
??_C@_0BF@NPJL@symbol?5not?5found?5?$CFs?6?$AA@
??_C@_03HHKO@?$CFs?6?$AA@
??_C@_0BE@EGEC@array?5not?5found?5?$CFs?6?$AA@
??_C@_06GFCO@arrays?$AA@
??_C@_07IHKF@strings?$AA@
??_7i4_string_manager_class@@6B@
??_C@_06EMNG@string?$AA@
??_C@_0N@EOOL@string_array?$AA@
??_C@_0BC@CPIN@?$CFs?3?$CFd?3?5expected?5?$HN?$AA@
??_C@_0CG@MCIH@?$CFs?3?$CFd?3?5macro?5symbol?5has?5no?5value@
??_C@_0BJ@OCOK@?$CFs?3?$CFd?3expected?5?$HL?5after?5$?$AA@
??_C@_08DMHI@dump?4txt?$AA@
??_C@_0BD@JPBE@?$CFs?3?$CFd?3?5expecting?5?$HN?$AA@
??_C@_0BC@FHHL@?$CFs?3?$CFd?3expected?5?$CFc?$AA@
??_C@_0BI@PNIC@?$CFs?3?$CFd?3?5expected?5include?$AA@
??_C@_07KDEJ@include?$AA@
??_C@_0BM@MDKK@?$CFs?3?$CFd?3?5expected?5token?5not?5?$HL?$AA@
??_C@_0BM@JJBI@?$CFs?3?$CFd?3?5expected?5token?5not?5?$DN?$AA@
??_C@_0BI@JMJN@include?5file?5?$CFs?5missing?$AA@
??_C@_0BE@MGJA@Resource?5missing?5?$CFs?$AA@
??_C@_05MGOB@Shift?$AA@
??_C@_03LDLJ@Alt?$AA@
??_C@_04KEPD@Ctrl?$AA@
??_C@_05GGAC@Space?$AA@
??_C@_06KCAA@Escape?$AA@
??_C@_05LEJJ@Enter?$AA@
??_C@_03CHMJ@Tab?$AA@
??_C@_09PJOE@Backspace?$AA@
??_C@_05HDMJ@Pad?5?4?$AA@
??_C@_09DNMH@Pad?5Enter?$AA@
??_C@_05HDAC@Pad?5?$CL?$AA@
??_C@_05IMHA@Pad?5?9?$AA@
??_C@_05NJJF@Pad?5?$CK?$AA@
??_C@_05NJFO@Pad?5?1?$AA@
??_C@_05CFAA@Pad?5?$DN?$AA@
??_C@_05IPFM@Pad?59?$AA@
??_C@_05CFML@Pad?58?$AA@
??_C@_05CEJG@Pad?57?$AA@
??_C@_05IOAB@Pad?56?$AA@
??_C@_05HBLI@Pad?55?$AA@
??_C@_05NLCP@Pad?54?$AA@
??_C@_05IOMK@Pad?53?$AA@
??_C@_05CEFN@Pad?52?$AA@
??_C@_05NLOE@Pad?51?$AA@
??_C@_05HBHD@Pad?50?$AA@
??_C@_07HCNK@Command?$AA@
??_C@_08MJKB@PageDown?$AA@
??_C@_06JEMG@PageUp?$AA@
??_C@_06EJIH@Insert?$AA@
??_C@_03DLNH@F15?$AA@
??_C@_03JBEA@F14?$AA@
??_C@_03MEKF@F13?$AA@
??_C@_03GODC@F12?$AA@
??_C@_03JBIL@F11?$AA@
??_C@_03DLBM@F10?$AA@
??_C@_02NIOF@F9?$AA@
??_C@_02HCHC@F8?$AA@
??_C@_02HDCP@F7?$AA@
??_C@_02NJLI@F6?$AA@
??_C@_02CGAB@F5?$AA@
??_C@_02IMJG@F4?$AA@
??_C@_02NJHD@F3?$AA@
??_C@_02HDOE@F2?$AA@
??_C@_02IMFN@F1?$AA@
??_C@_03PHMD@Del?$AA@
??_C@_03HPMG@End?$AA@
??_C@_04OGPG@Home?$AA@
??_C@_08FMCK@Num?5Lock?$AA@
??_C@_09CKJG@Caps?5Lock?$AA@
??_C@_0M@KKNI@Right?5Shift?$AA@
??_C@_0L@EJEK@Left?5Shift?$AA@
??_C@_09GMMJ@Right?5Alt?$AA@
??_C@_08LOHM@Left?5Alt?$AA@
??_C@_0L@JNCM@Right?5Ctrl?$AA@
??_C@_09PPO@Left?5Ctrl?$AA@
??_C@_05PNPP@Right?$AA@
??_C@_04MKGK@Left?$AA@
??_C@_04IH@Down?$AA@
??_C@_02NCFM@Up?$AA@
??_7i4_device_class@@6B@
??_C@_0CP@DLBB@event_handler?5has?5references?5at?5@
??_C@_0M@GCLD@?$CFs?3?$CFd?5?9?5?$CFs?6?$AA@
??_C@_0BP@KHKE@d?3?2golgotha?2device__device?4cpp?$AA@
??_C@_0CJ@NDDC@i4_event_handler?3?3thinking?5on?5de@
??_7i4_event_handler_class@@6B@
??_C@_0DM@CNA@event?5reaction?5is?5global?5and?5has@
??_C@_0DP@DIEJ@event?5reaction?5is?5global?5and?5has@
??_C@_0CG@HEBL@destroy_ref?5?3?5couldn?8t?5find?5refe@
??_C@_0BB@BLJC@command?5too?5long?$AA@
??_7i4_do_command_event_class@@6B@
??_7i4_end_command_event_class@@6B@
??_C@_0O@HLOH@?8?$CFs?8?5for?5?8?$CFs?8?$AA@
??_C@_0BH@PGMF@sending?5?3?5?8?$CFs?8?5to?5?8?$CFs?8?$AA@
??_C@_0BG@JJFP@queing?5?3?5?8?$CFs?8?5to?5?8?$CFs?8?$AA@
??_C@_0DB@JNIP@Modal?5Stack?3?5Unbalanced?5push?5and@
??_C@_0CB@FADG@remove?5device?5?3?5device?5not?5found@
??_7i4_kernel_device_class@@6B@
??_C@_0N@GALO@GenuineIntel?$AA@
??_C@_0N@CBMN@CentaurHauls?$AA@
??_C@_0N@OLMF@AuthenticAMD?$AA@
??_7i4_key_man_class@@6B@
??_C@_0BH@JJOO@i4_event_handler_class?$AA@
??_C@_0BA@PPIF@modifier_in_use?$AA@
??_C@_0EJ@FMCK@USER?3?5attempting?5to?5assign?5comma@
??_C@_06IDBB@no_key?$AA@
??_C@_00A@?$AA@
??_C@_0BM@LCAF@max?5contexts?5exceed?5with?5?$CFs?$AA@
??_7i4_event@@6B@
??_C@_0BL@NJKI@d?3?2golgotha?2memory?2stack?4h?$AA@
??_C@_0CB@PDKM@FATAL?3?5i4_stack?3?5stack?5underflow@
??_C@_0BL@DNMA@d?3?2golgotha?2memory?2array?4h?$AA@
??_C@_0BO@IBGN@i4_array?3?3bad?5array?5reference?$AA@
??_C@_0CB@JDFI@i4_array?3?3can?8t?5allocate?5entries@
??_C@_0L@CBPK@do_command?$AA@
??_C@_0BL@HPFC@d?3?2golgotha?2device?2event?4h?$AA@
??_C@_0M@KGEN@end_command?$AA@
??_C@_0BJ@LOAP@i4_array?3?3out?5of?5entries?$AA@
??_C@_0BI@OIOM@i4_array?3?3out?5of?5memory?$AA@
??_7i4_user_message_event_class@@6B@
??_C@_0N@IKOI@user_message?$AA@
??_7i4_user_idle_event_class@@6B@
??_C@_0N@CLEH@idle_message?$AA@
??_C@_0M@IDLH@key?5manager?$AA@
??_7i4_debug_file_class@@6B@
??_C@_0BA@NLNB@FORCE_CORE_DUMP?$AA@
??_C@_0JI@MDBD@?$CK?$CK?$CK?$CK?$CK?$CK?$CK?$CK?$CK?$CK?$CK?$CK?$CK?$CK?$CK?$CK?$CK?$CK?$CK?$CK?$CK?$CK?$CK?$CK?$CK?$CK?$CK?$CK?$CK?$CK?$CK?$CK@
??_C@_0BG@EHEE@Warning?5?$CI?$CFs?3?$CFd?$CJ?5?3?5?$CFs?6?$AA@
??_C@_0M@CJDH@Error?5?3?5?$CFs?6?$AA@
??_C@_02JBML@?$CFc?$AA@
??_C@_08KDAB@Alert?5?3?5?$AA@
??_C@_09CEC@error?4out?$AA@
??_7i4_time_device_class@@6B@
??_C@_0M@DPLK@Time?5Device?$AA@
??_7i4_time_device_adder_class@@6B@
??_C@_0BO@PECL@D?3?2golgotha?2time__timedev?4cpp?$AA@
??_C@_0DL@EEFF@INTERNAL?3?5Cannot?5send?5NOW?5events@
??_C@_0BH@FMMC@profile?5stack?5overflow?$AA@
??_C@_07LNAH@?5?5?8?$CFs?8?6?$AA@
??_C@_0BG@LHAH@items?5on?5stack?5end?5?3?6?$AA@
??_C@_0CI@PIFE@INTERNAL?3?5Unbalanced?5profile?5sta@
??_C@_0BB@ICAP@already?5in?5list?$DP?$AA@
??_C@_0CI@HKAD@profile?5stop?5unmatched?5?$CFs?5?$CI?$CFs?5on@
??_C@_0CK@NBMA@could?5not?5find?5profile?5entry?5to?5@
??_C@_0BL@JBJG@?$CF2?42f?$CF?$CF?5?5?$CF2?40f?5clocks?5?5?$CFs?6?$AA@
??_C@_0BE@GDOM@?$CF2?42f?5total?5clocks?6?$AA@
??_C@_0CH@MEBG@d?3?2golgotha?2threads__win32_threa@
??_C@_0BP@GFCB@ERROR?3?5CreateProcess?$CI?$CJ?5failed?4?$AA@
??_C@_0CI@NCCB@Can?8t?5get?5main?5thread?5stack?5from@
??_7thread_initer@@6B@
??_C@_05OMAI@?$CFs?9?$CFd?$AA@
??_C@_0BL@PHCB@d?3?2golgotha?2init__init?4cpp?$AA@
??_C@_03EMFB@?$CFp?6?$AA@
??_C@_0CP@DPKL@Successfully?5initialized?5?$CFd?5syst@
??_C@_0BH@DONN@i4?5already?5initialized?$AA@
??_C@_0BO@KNMC@i4_uninit?$CI?$CJ?5without?5i4_init?$CI?$CJ?$AA@
??_C@_0BN@DAON@couldn?8t?5find?5init?5to?5remove?$AA@
??_7i4_init_class@@6B@
??_C@_09MAGG@File?5tell?$AA@
??_C@_09LHJF@File?5Open?$AA@
??_C@_0BB@CMOM@System?5file?5Open?$AA@
??_C@_0L@HLHP@File?5Close?$AA@
??_C@_09BICE@File?5Read?$AA@
??_C@_0BA@DDKP@?3?3buffered?5file?$AA@
??_C@_0CK@EMMP@CRITICAL?3?5Ups?0?5we?5just?5ran?5out?5o@
??_C@_0BL@KLCL@d?3?2golgotha?2file__file?4cpp?$AA@
??_7i4_temp_file_class@@6B@
??_C@_0CE@OCE@Out?5of?5memory?5during?5memory?5real@
??_7i4_ram_file_class@@6B@
??_7file_string@@6B@
??_C@_0BM@IONL@unable?5to?5find?5file?5manager?$AA@
??_C@_03HKFD@?4?4?1?$AA@
??_C@_01PJCK@?4?$AA@
??_7i4_async_reader@@6B@
??_C@_0BG@IGFL@threads?5not?5supported?$AA@
??_7i4_buffered_file_class@@6B@
??_C@_0BL@JMEH@didn?8t?5find?5a?5free?5context?$AA@
??_7i4_ram_file_manager_class@@6B@
??_7i4_file_manager_class@@6B@
??_C@_0BB@MHH@don?8t?5write?5here?$AA@
??_C@_07DKNP@no?5file?$AA@
??_7i4_sub_section_file@@6B@
??_C@_0BA@DEBE@Win32File?3?3Seek?$AA@
??_C@_0BA@EKLB@Win32File?3?3Read?$AA@
??_C@_0BB@MBJC@Win32File?3?3Write?$AA@
??_C@_0BC@CJBJ@hd_async_reader_2?$AA@
??_7i4_win32_async_reader@@6B@
??_7i4_win32_file_manager_class@@6B@
??_C@_0CD@FICL@i4_file_class?3?3open?5failed?5for?5?$CF@
??_C@_0O@JHDB@?$CFsgolgotha?2?$CFs?$AA@
??_C@_04DCMN@?$CFs?$CFs?$AA@
??_C@_0GB@CDKO@Unable?5to?5create?5a?5file?5in?5the?5c@
??_C@_0BP@LLMM@File?5system?5permission?5problem?$AA@
??_C@_09DHAG@tex_cache?$AA@
??_C@_0BP@IEII@i4_file_class?3?3Bad?5open?5flags?$CB?$AA@
??_7i4_win32_file_class@@6B@
??_C@_06NAEO@?$CFs?1?$CK?4?$CK?$AA@
??_C@_0BG@PHCG@No?5CDROM?5Drive?5found?4?$AA@
??_C@_04POLC@?$CFc?3?2?$AA@
??_C@_05PCMN@level?$AA@
??_C@_0BF@MBOJ@All?5files?$CI?$CK?4?$CK?$CJ?$AA?$CK?4?$CK?$AA?$AA?$AA@
??_7open_string@@6B@
??_C@_0BM@DLMA@d?3?2golgotha?2file?2ram_file?4h?$AA@
??_7i4_file_open_message_class@@6B@
??_C@_0CA@DLOO@d?3?2golgotha?2file?2get_filename?4h?$AA@
?i4_mem_break@@3HA
?i4_malloc_max_size@@3HA
?i4_malloc_min_size@@3HA
?not_enough_total_memory_message@@3PADA
?__LINE__Var@?1??small_allocation_summary@@YAXAAHAAPAH@Z@4FA
?__LINE__Var@?1??i4_malloc_init@@YAXXZ@4FA
?__LINE__Var@?1??i4_malloc@@YAPAXKPADH@Z@4FA
?__LINE__Var@?1??i4_free@@YAXPAX@Z@4FA
?__LINE__Var@?1??i4_realloc@@YAPAXPAXKPADH@Z@4FA
?__LINE__Var@?1???0i4_grow_heap_class@@QAE@KK@Z@4FA
?__LINE__Var@?1??malloc@i4_grow_heap_class@@QAEPAXKPAD@Z@4FA
?__LINE__Var@?1??inspect@i4_block_manager_class@@QAEXXZ@4FA
?__LINE__Var@?1??free@i4_block_manager_class@@QAEXPAX@Z@4FA
??_R0PAX@8
??_R0PAD@8
?__LINE__Var@?1??get@i4_string_manager_class@@QAEABVi4_const_str@@PBD@Z@4FA
?__LINE__Var@?1??show_node@i4_string_manager_class@@AAEXPAVnode@2@@Z@4FA
?__LINE__Var@?1??get_array@i4_string_manager_class@@QAEPAVi4_const_str@@PBD@Z@4FA
?__LINE__Var@?1??expand_macro@i4_string_manager_class@@AAEXAAPAD0AAKPAD@Z@4FA
?__LINE__Var@?1??read_array@i4_string_manager_class@@AAEXAAPADPAPADAAK2PAD3@Z@4FA
?__LINE__Var@?1??get_token@i4_string_manager_class@@AAEXAAPAD0AAKPAD@Z@4FA
?__LINE__Var@?1??load_buffer@i4_string_manager_class@@QAEEPAXPAD@Z@4FA
?__LINE__Var@?1??load@i4_string_manager_class@@QAEEPAD@Z@4FA
?__LINE__Var@?1??i4gets@@YAABVi4_const_str@@PADE@Z@4FA
?__LINE__Var@?1???1i4_event_handler_class@@UAE@XZ@4FA
?__LINE__Var@?1??copy@i4_event_reaction_class@@QAEPAV2@XZ@4FA
?__LINE__Var@?1???1i4_event_reaction_class@@QAE@XZ@4FA
?__LINE__Var@?1???0i4_event_reaction_class@@QAE@PAVi4_event_handler_class@@K@Z@4FA
?__LINE__Var@?1??destroy_ref@i4_event_handler_private_reference_class@@IAEXXZ@4FA
?__LINE__Var@?1???0i4_do_command_event_class@@QAE@PADH@Z@4FA
?__LINE__Var@?1???0i4_do_command_event_class@@QAE@PADHAAVi4_time_class@@@Z@4FA
?__LINE__Var@?1??copy@i4_do_command_event_class@@UAEPAVi4_event@@XZ@4FA
?__LINE__Var@?1???0i4_end_command_event_class@@QAE@PADHAAVi4_time_class@@@Z@4FA
?__LINE__Var@?1???0i4_end_command_event_class@@QAE@PADH@Z@4FA
?__LINE__Var@?1??show_pending@i4_kernel_device_class@@AAEXXZ@4FA
?__LINE__Var@?1??send_event@i4_kernel_device_class@@QAEXPAVi4_event_handler_class@@PAVi4_event@@@Z@4FA
?__LINE__Var@?1??end_modal@i4_kernel_device_class@@UAEXPAVi4_window_class@@@Z@4FA
?__LINE__Var@?1??flush_events@i4_kernel_device_class@@QAEEXZ@4FA
?__LINE__Var@?1??request_events@i4_kernel_device_class@@UAEXPAVi4_event_handler_class@@K@Z@4FA
?__LINE__Var@?1??remove_device@i4_kernel_device_class@@QAEXPAVi4_device_class@@@Z@4FA
?__LINE__Var@?1??delete_handler@i4_kernel_device_class@@QAEXPAVi4_event_handler_class@@@Z@4FA
?__LINE__Var@?1??load@i4_key_man_class@@QAEEABVi4_const_str@@@Z@4FA
?__LINE__Var@?1??check_init@i4_key_man_class@@IAEXXZ@4FA
?__LINE__Var@?1??get_context_id@i4_key_man_class@@QAEHPAD@Z@4FA
?__LINE__Var@?1??add@i4_key_matchup_class@@QAEXPADH@Z@4FA
i4_debug 
?i4_error_function@@3P6AHPBD@ZA
?i4_warning_function@@3P6AHPBD@ZA
?i4_alert_function@@3P6AHABVi4_const_str@@@ZA
?MSVC_func@@3P6AXXZA
?i4_win_clocks_per_sec@@3HA
?__LINE__Var@?1??process_events@i4_time_device_class@@UAEEXZ@4FA
?__LINE__Var@?1??request_event@i4_time_device_class@@QAE?AVid@2@PAVi4_event_handler_class@@PAVi4_event@@K@Z@4FA
?__LINE__Var@?1??overflow@i4_profile_stack_struct@@QAEXXZ@4FA
?__LINE__Var@?1??underflow@i4_profile_stack_struct@@QAEXXZ@4FA
?__LINE__Var@?1???0i4_profile_class@@QAE@PAD@Z@4FA
?__LINE__Var@?1??called_stop@i4_profile_class@@QAEXXZ@4FA
?__LINE__Var@?1???1i4_profile_class@@QAE@XZ@4FA
?__LINE__Var@?1??i4_thread_starter@@YAXPAX@Z@4FA
?__LINE__Var@?1??i4_exec@@YAHAAVi4_const_str@@E0@Z@4FA
?__LINE__Var@?1??i4_get_thread_stack@@YAXHAAPAX0@Z@4FA
?__LINE__Var@?1??i4_show_init_list@@YAXXZ@4FA
?__LINE__Var@?1??i4_init@@YAXXZ@4FA
?__LINE__Var@?1??i4_uninit@@YAXXZ@4FA
?__LINE__Var@?1???1i4_init_class@@UAE@XZ@4FA
?__LINE__Var@?1???0i4_temp_file_class@@QAE@XZ@4FA
?__LINE__Var@?1???0i4_temp_file_class@@QAE@KK@Z@4FA
?__LINE__Var@?1??write@i4_temp_file_class@@UAEKPBXK@Z@4FA
?__LINE__Var@?1??read_str@i4_file_class@@QAEPAVi4_str@@K@Z@4FA
?__LINE__Var@?1??i4_copy_file@@YAEABVi4_const_str@@0@Z@4FA
?__LINE__Var@?1??i4_remove_file_manger@@YAXPAVi4_file_manager_class@@@Z@4FA
?__LINE__Var@?1??i4_relative_path@@YAPAVi4_str@@ABVi4_const_str@@@Z@4FA
?__LINE__Var@?1??start_read@i4_async_reader@@QAEEHPAXKP6AXK0@Z0@Z@4FA
?__LINE__Var@?1??async_read@i4_buffered_file_class@@UAEEPAXKP6AXK0@Z0@Z@4FA
?__LINE__Var@?1??write@i4_sub_section_file@@UAEKPBXK@Z@4FA
?__LINE__Var@?1???0i4_sub_section_file@@QAE@PAVi4_file_class@@HH@Z@4FA
?__LINE__Var@?1??i4_create_file_open_dialog@@YAXPAVi4_graphical_style_class@@ABVi4_const_str@@111PAVi4_event_handler_class@@KK@Z@4FA
?__LINE__Var@?1??i4_create_file_save_dialog@@YAXPAVi4_graphical_style_class@@ABVi4_const_str@@1111PAVi4_event_handler_class@@KK@Z@4FA
?bmanage@@3PAVi4_block_manager_class@@A
?i4_memory_init_instance@@3Vi4_memory_init_class@@A
?i4_m_instance@@3HA
?bmanage_total@@3HA
?i4_show_frees@@3HA
?i4_string_man@@3Vi4_string_manager_class@@A
?nodes@node@i4_string_manager_class@@2PAVi4_linear_allocator@@A
?nodes_ref@node@i4_string_manager_class@@2KA
?nodes@array_node@i4_string_manager_class@@2PAVi4_linear_allocator@@A
?i4_key_man@@3Vi4_key_man_class@@A
?i4_kernel@@3Vi4_kernel_device_class@@A
?i4_show_events@@3HA
?MSVC_p@@3PAKA
i4_error_line_on 
i4_error_file_on 
?i4_error_mirror_file@@3PAU_iobuf@@A
?MSVC_params@@3KA
?stack@i4_profile_stack_struct@@2PAUi4_profile_stack_item@@A
?i4_time_dev@@3Vi4_time_device_class@@A
?list@i4_profile_class@@2PAV1@A
?i4_win32_start_clock@@3JA
?i4_time_device_adder_instance@@3Vi4_time_device_adder_class@@A
?i4_profile_stack@@3Ui4_profile_stack_struct@@A
?i4_profile_on@@3HA
?i4_profile_stack_top@@3HA
?i4_main_thread_id@@3HA
?first_init@i4_init_class@@2PAV1@A
?Num_Init_Classes@@3KA
?Current_Init_Class@@3KA
?pf_win32_write@@3Vi4_profile_class@@A
?pf_win32_seek@@3Vi4_profile_class@@A
?i4_win32_async_instance@@3Vi4_win32_async_reader@@A
?i4_win32_file_man@@3Vi4_win32_file_manager_class@@A
?i4_ram_file_manager_instance@@3Vi4_ram_file_manager_class@@A
?pf_win32_read@@3Vi4_profile_class@@A
?first@i4_file_manager_class@@2PAV1@A
?i4_flist@@3PAVi4_openable_ram_file_info@@A
?i4_win32_instance@@3PAUHINSTANCE__@@A
?i4_stack_base@@3PAXA
