LIBRARY     MESH.DLL

EXPORTS
    ??0AdjEdgeList@@QAE@AAVMesh@@@Z @1   ; ??0AdjEdgeList@@QAE@AAVMesh@@@Z
    ??0AdjFaceList@@QAE@AAVMesh@@AAVAdjEdgeList@@@Z @2   ; ??0AdjFaceList@@QAE@AAVMesh@@AAVAdjEdgeList@@@Z
    ??0FaceClusterList@@QAE@AAVBitArray@@AAVAdjFaceList@@@Z @3   ; ??0FaceClusterList@@QAE@AAVBitArray@@AAVAdjFaceList@@@Z
    ??0FaceClusterList@@QAE@PAVMesh@@AAVAdjFaceList@@MH@Z @4   ; ??0FaceClusterList@@QAE@PAVMesh@@AAVAdjFaceList@@MH@Z
    ??0FaceElementList@@QAE@AAVMesh@@AAVAdjFaceList@@@Z @5   ; ??0FaceElementList@@QAE@AAVMesh@@AAVAdjFaceList@@@Z
    ??0Mesh@@QAE@ABV0@@Z           @6   ; ??0Mesh@@QAE@ABV0@@Z
    ??0Mesh@@QAE@XZ                @7   ; ??0Mesh@@QAE@XZ
    ??1AdjEdgeList@@QAE@XZ         @8   ; ??1AdjEdgeList@@QAE@XZ
    ??1Mesh@@QAE@XZ                @9   ; ??1Mesh@@QAE@XZ
    ??1RVertex@@QAE@XZ             @10  ; ??1RVertex@@QAE@XZ
    ??4Mesh@@QAEAAV0@ABV0@@Z       @11  ; ??4Mesh@@QAEAAV0@ABV0@@Z
    ??DMesh@@QAE?AV0@AAV0@@Z       @12  ; ??DMesh@@QAE?AV0@AAV0@@Z
    ??GMesh@@QAE?AV0@AAV0@@Z       @13  ; ??GMesh@@QAE?AV0@AAV0@@Z
    ??HMesh@@QAE?AV0@AAV0@@Z       @14  ; ??HMesh@@QAE?AV0@AAV0@@Z
    ?AddEdge@AdjEdgeList@@QAEXKKK@Z @15  ; ?AddEdge@AdjEdgeList@@QAEXKKK@Z
    ?AngleBetweenFaces@Mesh@@QAEMKK@Z @16  ; ?AngleBetweenFaces@Mesh@@QAEMKK@Z
    ?ApplyUVWMap@Mesh@@QAEXHMMMHHHHABVMatrix3@@@Z @17  ; ?ApplyUVWMap@Mesh@@QAEXHMMMHHHHABVMatrix3@@@Z
    ?AutoSmooth@Mesh@@QAEXMH@Z     @18  ; ?AutoSmooth@Mesh@@QAEXMH@Z
    ?BaryCoords@Mesh@@QAE?AVPoint3@@KV2@@Z @19  ; ?BaryCoords@Mesh@@QAE?AVPoint3@@KV2@@Z
    ?BuildVisEdgeList@Mesh@@QAEXXZ @20  ; ?BuildVisEdgeList@Mesh@@QAEXXZ
    ?CalcBoolOp@@YAHAAVMesh@@00HPAVMeshOpProgress@@PAVMatrix3@@2HH@Z @21  ; ?CalcBoolOp@@YAHAAVMesh@@00HPAVMeshOpProgress@@PAVMatrix3@@2HH@Z
    ?DeepCopy@Mesh@@QAEXPAV1@K@Z   @22  ; ?DeepCopy@Mesh@@QAEXPAV1@K@Z
    ?DeleteFlaggedFaces@Mesh@@QAEHXZ @23  ; ?DeleteFlaggedFaces@Mesh@@QAEHXZ
    ?DivideEdge@Mesh@@QAEXK@Z      @24  ; ?DivideEdge@Mesh@@QAEXK@Z
    ?DoesFaceExist@Mesh@@QAEHKKK@Z @25  ; ?DoesFaceExist@Mesh@@QAEHKKK@Z
    ?DrawVisEdgeList@Mesh@@QAEXPAVGraphicsWindow@@K@Z @26  ; ?DrawVisEdgeList@Mesh@@QAEXPAVGraphicsWindow@@K@Z
    ?EnableEdgeList@Mesh@@QAEXH@Z  @27  ; ?EnableEdgeList@Mesh@@QAEXH@Z
    ?FindEdge@AdjEdgeList@@QAEHAAV?$Tab@K@@KK@Z @28  ; ?FindEdge@AdjEdgeList@@QAEHAAV?$Tab@K@@KK@Z
    ?FindEdge@AdjEdgeList@@QAEHKK@Z @29  ; ?FindEdge@AdjEdgeList@@QAEHKK@Z
    ?FlipNormal@Mesh@@QAEXH@Z      @30  ; ?FlipNormal@Mesh@@QAEXH@Z
    ?FreeAll@Mesh@@QAEXXZ          @31  ; ?FreeAll@Mesh@@QAEXXZ
    ?FreeChannels@Mesh@@QAEXKH@Z   @32  ; ?FreeChannels@Mesh@@QAEXKH@Z
    ?GetSubSelColor@@YA?AVPoint3@@XZ @33  ; ?GetSubSelColor@@YA?AVPoint3@@XZ
    ?HitTestVisEdgeList@Mesh@@QAEXPAVGraphicsWindow@@H@Z @34  ; ?HitTestVisEdgeList@Mesh@@QAEXPAVGraphicsWindow@@H@Z
    ?IntersectRay@Mesh@@QAEHAAVRay@@AAMAAVPoint3@@@Z @35  ; ?IntersectRay@Mesh@@QAEHAAVRay@@AAMAAVPoint3@@@Z
    ?InvalidateEdgeList@Mesh@@QAEXXZ @36  ; ?InvalidateEdgeList@Mesh@@QAEXXZ
    ?InvalidateGeomCache@Mesh@@QAEXXZ @37  ; ?InvalidateGeomCache@Mesh@@QAEXXZ
    ?Load@Mesh@@QAE?AW4IOResult@@PAVILoad@@@Z @38  ; ?Load@Mesh@@QAE?AW4IOResult@@PAVILoad@@@Z
    ?MakeEdgeList@Mesh@@QAEPAUEdge@@PAHH@Z @39  ; ?MakeEdgeList@Mesh@@QAEPAUEdge@@PAHH@Z
    ?NewAndCopyChannels@Mesh@@QAEXK@Z @40  ; ?NewAndCopyChannels@Mesh@@QAEXK@Z
    ?Optimize@Mesh@@QAEXMMMKPAVMeshOpProgress@@@Z @41  ; ?Optimize@Mesh@@QAEXMMMKPAVMeshOpProgress@@@Z
    ?RemoveDegenerateFaces@Mesh@@QAEHXZ @42  ; ?RemoveDegenerateFaces@Mesh@@QAEHXZ
    ?RemoveEdge@AdjEdgeList@@QAEXKK@Z @43  ; ?RemoveEdge@AdjEdgeList@@QAEXKK@Z
    ?RemoveIllegalFaces@Mesh@@QAEHXZ @44  ; ?RemoveIllegalFaces@Mesh@@QAEHXZ
    ?Save@Mesh@@QAE?AW4IOResult@@PAVISave@@@Z @45  ; ?Save@Mesh@@QAE?AW4IOResult@@PAVISave@@@Z
    ?SetSubSelColor@@YAXPAVPoint3@@@Z @46  ; ?SetSubSelColor@@YAXPAVPoint3@@@Z
    ?ShallowCopy@Mesh@@QAEXPAV1@K@Z @47  ; ?ShallowCopy@Mesh@@QAEXPAV1@K@Z
    ?SubObjectHitTest@Mesh@@QAEHPAVGraphicsWindow@@PAVMaterial@@PAVHitRegion@@KAAVSubObjHitList@@H@Z @48  ; ?SubObjectHitTest@Mesh@@QAEHPAVGraphicsWindow@@PAVMaterial@@PAVHitRegion@@KAAVSubObjHitList@@H@Z
    ?TransferEdges@AdjEdgeList@@QAEXKKKKK@Z @49  ; ?TransferEdges@AdjEdgeList@@QAEXKKKKK@Z
    ?TurnEdge@Mesh@@QAEXK@Z        @50  ; ?TurnEdge@Mesh@@QAEXK@Z
    ?UnifyNormals@Mesh@@QAEXH@Z    @51  ; ?UnifyNormals@Mesh@@QAEXH@Z
    ?VertexTempSel@Mesh@@QAE?AVBitArray@@XZ @52  ; ?VertexTempSel@Mesh@@QAE?AVBitArray@@XZ
    ?WeldCollinear@Mesh@@QAEXAAVBitArray@@@Z @53  ; ?WeldCollinear@Mesh@@QAEXAAVBitArray@@@Z
    ?buildBoundingBox@Mesh@@QAEXXZ @54  ; ?buildBoundingBox@Mesh@@QAEXXZ
    ?buildNormals@Mesh@@QAEXXZ     @55  ; ?buildNormals@Mesh@@QAEXXZ
    ?buildRenderNormals@Mesh@@QAEXXZ @56  ; ?buildRenderNormals@Mesh@@QAEXXZ
    ?createFaceMtlIndexList@Mesh@@QAEXXZ @57  ; ?createFaceMtlIndexList@Mesh@@QAEXXZ
    ?getBoundingBox@Mesh@@QAE?AVBox3@@PAVMatrix3@@@Z @58  ; ?getBoundingBox@Mesh@@QAE?AVBox3@@PAVMatrix3@@@Z
    ?getFaceMtlIndex@Mesh@@QAEGH@Z @59  ; ?getFaceMtlIndex@Mesh@@QAEGH@Z
    ?getNormal@Mesh@@QAEAAVPoint3@@H@Z @60  ; ?getNormal@Mesh@@QAEAAVPoint3@@H@Z
    ?getUseVisEdge@@YAHXZ          @61  ; ?getUseVisEdge@@YAHXZ
    ?render@Mesh@@QAEXPAVGraphicsWindow@@PAVMaterial@@PAUtagRECT@@HH@Z @62  ; ?render@Mesh@@QAEXPAVGraphicsWindow@@PAVMaterial@@PAUtagRECT@@HH@Z
    ?select@Mesh@@QAEHPAVGraphicsWindow@@PAVMaterial@@PAVHitRegion@@HH@Z @63  ; ?select@Mesh@@QAEHPAVGraphicsWindow@@PAVMaterial@@PAVHitRegion@@HH@Z
    ?setEdgeVis@Face@@QAEXHH@Z     @64  ; ?setEdgeVis@Face@@QAEXHH@Z
    ?setEdgeVisFlags@Face@@QAEXHHH@Z @65  ; ?setEdgeVisFlags@Face@@QAEXHHH@Z
    ?setFaceMtlIndex@Mesh@@QAEXHG@Z @66  ; ?setFaceMtlIndex@Mesh@@QAEXHG@Z
    ?setMeshIntrFunc@@YAXP6AHXZ@Z  @67  ; ?setMeshIntrFunc@@YAXP6AHXZ@Z
    ?setNormal@Mesh@@QAEXHABVPoint3@@@Z @68  ; ?setNormal@Mesh@@QAEXHABVPoint3@@@Z
    ?setNumFaces@Mesh@@QAEHHH@Z    @69  ; ?setNumFaces@Mesh@@QAEHHH@Z
    ?setNumT3DVerts@Mesh@@QAEHHHH@Z @70  ; ?setNumT3DVerts@Mesh@@QAEHHHH@Z
    ?setNumTVFaces@Mesh@@QAEHHHH@Z @71  ; ?setNumTVFaces@Mesh@@QAEHHHH@Z
    ?setNumTVerts@Mesh@@QAEHHH@Z   @72  ; ?setNumTVerts@Mesh@@QAEHHH@Z
    ?setNumVerts@Mesh@@QAEHHH@Z    @73  ; ?setNumVerts@Mesh@@QAEHHH@Z
    ?setUseVisEdge@@YAXH@Z         @74  ; ?setUseVisEdge@@YAXH@Z
    ?snap@Mesh@@QAEXPAVGraphicsWindow@@PAUSnapInfo@@PAVIPoint2@@AAVMatrix3@@@Z @75  ; ?snap@Mesh@@QAEXPAVGraphicsWindow@@PAUSnapInfo@@PAVIPoint2@@AAVMatrix3@@@Z
