LIBRARY     UTIL.DLL

EXPORTS
    ??0CStr@@QAE@ABV0@@Z           @1   ; ??0CStr@@QAE@ABV0@@Z
    ??0CStr@@QAE@PBD@Z             @2   ; ??0CStr@@QAE@PBD@Z
    ??0CStr@@QAE@PBG@Z             @3   ; ??0CStr@@QAE@PBG@Z
    ??0CStr@@QAE@XZ                @4   ; ??0CStr@@QAE@XZ
    ??0HierarchyEntry@@QAE@HPAV0@0@Z @5   ; ??0HierarchyEntry@@QAE@HPAV0@0@Z
    ??0HierarchyEntry@@QAE@XZ      @6   ; ??0HierarchyEntry@@QAE@XZ
    ??0PtrVector@@IAE@ABV0@@Z      @7   ; ??0PtrVector@@IAE@ABV0@@Z
    ??0WStr@@QAE@ABV0@@Z           @8   ; ??0WStr@@QAE@ABV0@@Z
    ??0WStr@@QAE@PBD@Z             @9   ; ??0WStr@@QAE@PBD@Z
    ??0WStr@@QAE@PBG@Z             @10  ; ??0WStr@@QAE@PBG@Z
    ??0WStr@@QAE@XZ                @11  ; ??0WStr@@QAE@XZ
    ??1CStr@@QAE@XZ                @12  ; ??1CStr@@QAE@XZ
    ??1GenericHierarchy@@QAE@XZ    @13  ; ??1GenericHierarchy@@QAE@XZ
    ??1NameTab@@QAE@XZ             @14  ; ??1NameTab@@QAE@XZ
    ??1PtrVector@@IAE@XZ           @15  ; ??1PtrVector@@IAE@XZ
    ??1WStr@@QAE@XZ                @16  ; ??1WStr@@QAE@XZ
    ??4CStr@@QAEAAV0@ABV0@@Z       @17  ; ??4CStr@@QAEAAV0@ABV0@@Z
    ??4CStr@@QAEAAV0@PBD@Z         @18  ; ??4CStr@@QAEAAV0@PBD@Z
    ??4CStr@@QAEAAV0@PBG@Z         @19  ; ??4CStr@@QAEAAV0@PBG@Z
    ??4GenericHierarchy@@QAEAAV0@AAV0@@Z @20  ; ??4GenericHierarchy@@QAEAAV0@AAV0@@Z
    ??4NameTab@@QAEAAV0@ABV0@@Z    @21  ; ??4NameTab@@QAEAAV0@ABV0@@Z
    ??4PtrVector@@IAEAAV0@ABV0@@Z  @22  ; ??4PtrVector@@IAEAAV0@ABV0@@Z
    ??4WStr@@QAEAAV0@ABV0@@Z       @23  ; ??4WStr@@QAEAAV0@ABV0@@Z
    ??4WStr@@QAEAAV0@PBD@Z         @24  ; ??4WStr@@QAEAAV0@PBD@Z
    ??4WStr@@QAEAAV0@PBG@Z         @25  ; ??4WStr@@QAEAAV0@PBG@Z
    ??8CStr@@QBEHABV0@@Z           @26  ; ??8CStr@@QBEHABV0@@Z
    ??8WStr@@QBEHABV0@@Z           @27  ; ??8WStr@@QBEHABV0@@Z
    ??ACStr@@QAEAADH@Z             @28  ; ??ACStr@@QAEAADH@Z
    ??BCStr@@QAEPADXZ              @29  ; ??BCStr@@QAEPADXZ
    ??BWStr@@QAEPAGXZ              @30  ; ??BWStr@@QAEPAGXZ
    ??HCStr@@QBE?AV0@ABV0@@Z       @31  ; ??HCStr@@QBE?AV0@ABV0@@Z
    ??HWStr@@QBE?AV0@ABV0@@Z       @32  ; ??HWStr@@QBE?AV0@ABV0@@Z
    ??MCStr@@QBEHABV0@@Z           @33  ; ??MCStr@@QBEHABV0@@Z
    ??MWStr@@QBEHABV0@@Z           @34  ; ??MWStr@@QBEHABV0@@Z
    ??NCStr@@QBEHABV0@@Z           @35  ; ??NCStr@@QBEHABV0@@Z
    ??NWStr@@QBEHABV0@@Z           @36  ; ??NWStr@@QBEHABV0@@Z
    ??OCStr@@QBEHABV0@@Z           @37  ; ??OCStr@@QBEHABV0@@Z
    ??OWStr@@QBEHABV0@@Z           @38  ; ??OWStr@@QBEHABV0@@Z
    ??PCStr@@QBEHABV0@@Z           @39  ; ??PCStr@@QBEHABV0@@Z
    ??PWStr@@QBEHABV0@@Z           @40  ; ??PWStr@@QBEHABV0@@Z
    ??YCStr@@QAEAAV0@ABV0@@Z       @41  ; ??YCStr@@QAEAAV0@ABV0@@Z
    ??YWStr@@QAEAAV0@ABV0@@Z       @42  ; ??YWStr@@QAEAAV0@ABV0@@Z
    ?AddChild@HierarchyEntry@@QAEXH@Z @43  ; ?AddChild@HierarchyEntry@@QAEXH@Z
    ?AddEntry@GenericHierarchy@@QAEXHH@Z @44  ; ?AddEntry@GenericHierarchy@@QAEXHH@Z
    ?AddName@NameTab@@QAEHPAD@Z    @45  ; ?AddName@NameTab@@QAEHPAD@Z
    ?Append@FilterList@@QAEXPAD@Z  @46  ; ?Append@FilterList@@QAEXPAD@Z
    ?DebugPrint@@YAXPBDZZ          @47  ; ?DebugPrint@@YAXPBDZZ
    ?Dump@GenericHierarchy@@QAEXPAVHierarchyEntry@@@Z @48  ; ?Dump@GenericHierarchy@@QAEXPAVHierarchyEntry@@@Z
    ?Entries@GenericHierarchy@@QAEHXZ @49  ; ?Entries@GenericHierarchy@@QAEHXZ
    ?FindEntry@GenericHierarchy@@QAEPAVHierarchyEntry@@HPAV2@@Z @50  ; ?FindEntry@GenericHierarchy@@QAEPAVHierarchyEntry@@HPAV2@@Z
    ?FindName@NameTab@@QAEHPAD@Z   @51  ; ?FindName@NameTab@@QAEHPAD@Z
    ?GetChild@GenericHierarchy@@QAEHHH@Z @52  ; ?GetChild@GenericHierarchy@@QAEHHH@Z
    ?GetChild@HierarchyEntry@@QAEHH@Z @53  ; ?GetChild@HierarchyEntry@@QAEHH@Z
    ?GetStart@GenericHierarchy@@QAEPAVHierarchyEntry@@XZ @54  ; ?GetStart@GenericHierarchy@@QAEPAVHierarchyEntry@@XZ
    ?HardwareLockID@@YAIXZ         @55  ; ?HardwareLockID@@YAIXZ
    ?HierarchyLevel@HierarchyEntry@@QAEHXZ @56  ; ?HierarchyLevel@HierarchyEntry@@QAEHXZ
    ?IsCompatible@GenericHierarchy@@QAEHAAV1@@Z @57  ; ?IsCompatible@GenericHierarchy@@QAEHAAV1@@Z
    ?Length@CStr@@QAEHXZ           @58  ; ?Length@CStr@@QAEHXZ
    ?Length@WStr@@QAEHXZ           @59  ; ?Length@WStr@@QAEHXZ
    ?Load@NameTab@@QAE?AW4IOResult@@PAVILoad@@@Z @60  ; ?Load@NameTab@@QAE?AW4IOResult@@PAVILoad@@@Z
    ?New@GenericHierarchy@@QAEXXZ  @61  ; ?New@GenericHierarchy@@QAEXXZ
    ?NumberOfChildren@GenericHierarchy@@QAEHH@Z @62  ; ?NumberOfChildren@GenericHierarchy@@QAEHH@Z
    ?RemoveName@NameTab@@QAEXH@Z   @63  ; ?RemoveName@NameTab@@QAEXH@Z
    ?Resize@CStr@@QAEXH@Z          @64  ; ?Resize@CStr@@QAEXH@Z
    ?Resize@WStr@@QAEXH@Z          @65  ; ?Resize@WStr@@QAEXH@Z
    ?Save@NameTab@@QAE?AW4IOResult@@PAVISave@@@Z @66  ; ?Save@NameTab@@QAE?AW4IOResult@@PAVISave@@@Z
    ?SetName@NameTab@@QAEXHPAD@Z   @67  ; ?SetName@NameTab@@QAEXHPAD@Z
    ?SetSize@NameTab@@QAEXH@Z      @68  ; ?SetSize@NameTab@@QAEXH@Z
    ?Sort@GenericHierarchy@@QAEXXZ @69  ; ?Sort@GenericHierarchy@@QAEXXZ
    ?Sort@HierarchyEntry@@QAEXXZ   @70  ; ?Sort@HierarchyEntry@@QAEXXZ
    ?SortKey@GenericHierarchy@@QAEAAVCStr@@XZ @71  ; ?SortKey@GenericHierarchy@@QAEAAVCStr@@XZ
    ?SplitFilename@@YAXAAVCStr@@PAV1@11@Z @72  ; ?SplitFilename@@YAXAAVCStr@@PAV1@11@Z
    ?SplitPathFile@@YAXAAVCStr@@PAV1@1@Z @73  ; ?SplitPathFile@@YAXAAVCStr@@PAV1@1@Z
    ?Substr@CStr@@QBE?AV1@HH@Z     @74  ; ?Substr@CStr@@QBE?AV1@HH@Z
    ?Substr@WStr@@QBE?AV1@HH@Z     @75  ; ?Substr@WStr@@QBE?AV1@HH@Z
    ?TBCopy@@YAHPAPAUTabHdr@@HHPAXH@Z @76  ; ?TBCopy@@YAHPAPAUTabHdr@@HHPAXH@Z
    ?TBDelete@@YAHPAPAUTabHdr@@HHH@Z @77  ; ?TBDelete@@YAHPAPAUTabHdr@@HHH@Z
    ?TBInsertAt@@YAHPAPAUTabHdr@@HHPAXHH@Z @78  ; ?TBInsertAt@@YAHPAPAUTabHdr@@HHPAXHH@Z
    ?TBMakeSize@@YAHPAPAUTabHdr@@HH@Z @79  ; ?TBMakeSize@@YAHPAPAUTabHdr@@HH@Z
    ?TBSetCount@@YAXPAPAUTabHdr@@HH@Z @80  ; ?TBSetCount@@YAXPAPAUTabHdr@@HH@Z
    ?append@PtrVector@@IAEXPAXH@Z  @81  ; ?append@PtrVector@@IAEXPAXH@Z
    ?assert1@@YAHHPAD@Z            @82  ; ?assert1@@YAHHPAD@Z
    ?clear@PtrVector@@QAEXXZ       @83  ; ?clear@PtrVector@@QAEXXZ
    ?data@CStr@@QAEPADXZ           @84  ; ?data@CStr@@QAEPADXZ
    ?data@WStr@@QAEPAGXZ           @85  ; ?data@WStr@@QAEPAGXZ
    ?first@CStr@@QAEHD@Z           @86  ; ?first@CStr@@QAEHD@Z
    ?first@WStr@@QAEHG@Z           @87  ; ?first@WStr@@QAEHG@Z
    ?insertAt@PtrVector@@IAEXPAXHH@Z @88  ; ?insertAt@PtrVector@@IAEXPAXHH@Z
    ?last@CStr@@QAEHD@Z            @89  ; ?last@CStr@@QAEHD@Z
    ?last@WStr@@QAEHG@Z            @90  ; ?last@WStr@@QAEHG@Z
    ?printf@CStr@@QAAHPBDZZ        @91  ; ?printf@CStr@@QAAHPBDZZ
    ?printf@WStr@@QAAHPBGZZ        @92  ; ?printf@WStr@@QAAHPBGZZ
    ?remove@CStr@@QAEAAV1@H@Z      @93  ; ?remove@CStr@@QAEAAV1@H@Z
    ?remove@CStr@@QAEAAV1@HH@Z     @94  ; ?remove@CStr@@QAEAAV1@HH@Z
    ?remove@PtrVector@@IAEPAXH@Z   @95  ; ?remove@PtrVector@@IAEPAXH@Z
    ?remove@WStr@@QAEAAV1@H@Z      @96  ; ?remove@WStr@@QAEAAV1@H@Z
    ?remove@WStr@@QAEAAV1@HH@Z     @97  ; ?remove@WStr@@QAEAAV1@HH@Z
    ?removeLast@PtrVector@@IAEPAXXZ @98  ; ?removeLast@PtrVector@@IAEPAXXZ
    ?reshape@PtrVector@@QAEXH@Z    @99  ; ?reshape@PtrVector@@QAEXH@Z
    ?setLength@PtrVector@@QAEXH@Z  @100 ; ?setLength@PtrVector@@QAEXH@Z
    ?toLower@CStr@@QAEXXZ          @101 ; ?toLower@CStr@@QAEXXZ
    ?toLower@WStr@@QAEXXZ          @102 ; ?toLower@WStr@@QAEXXZ
    ?toUpper@CStr@@QAEXXZ          @103 ; ?toUpper@CStr@@QAEXXZ
    ?toUpper@WStr@@QAEXXZ          @104 ; ?toUpper@WStr@@QAEXXZ
    ?zfree@@YAXPAPAX@Z             @105 ; ?zfree@@YAXPAPAX@Z
